TN:
SF:/home/kbikeguy/soft_eng/tank-project/src/Actor.cpp
FN:10,_ZN5ActorD0Ev
FN:10,_ZN5ActorD2Ev
FN:23,_ZN5Actor7setNameENSt7__cxx1112basic_stringIcSt11char_traitsIcESaIcEEE
FN:38,_ZN5Actor5setIdEi
FN:54,_ZN5Actor5getIdEv
FN:69,_ZN5Actor7getNameB5cxx11Ev
FNDA:0,_ZN5Actor5setIdEi
FNDA:0,_ZN5Actor7getNameB5cxx11Ev
FNDA:115,_ZN5ActorD2Ev
FNDA:0,_ZN5Actor5getIdEv
FNDA:0,_ZN5ActorD0Ev
FNDA:0,_ZN5Actor7setNameENSt7__cxx1112basic_stringIcSt11char_traitsIcESaIcEEE
FNF:6
FNH:1
DA:10,115
DA:23,0
DA:25,0
DA:26,0
DA:38,0
DA:40,0
DA:41,0
DA:54,0
DA:56,0
DA:69,0
DA:71,0
LF:11
LH:1
end_of_record
TN:
SF:/home/kbikeguy/soft_eng/tank-project/src/Actor.h
FN:15,_ZN5ActorC2Ev
FNDA:117,_ZN5ActorC2Ev
FNF:1
FNH:1
DA:15,117
LF:1
LH:1
end_of_record
TN:
SF:/home/kbikeguy/soft_eng/tank-project/src/ActorInfo.cpp
FN:18,_ZeqRK9ActorInfoS1_
FN:24,_GLOBAL__sub_I_ActorInfo.cpp
FN:24,_Z41__static_initialization_and_destruction_0ii
FNDA:2,_Z41__static_initialization_and_destruction_0ii
FNDA:2,_GLOBAL__sub_I_ActorInfo.cpp
FNDA:6,_ZeqRK9ActorInfoS1_
FNF:3
FNH:3
DA:18,6
DA:20,17
DA:21,15
DA:22,15
DA:23,16
DA:24,6
LF:6
LH:6
end_of_record
TN:
SF:/home/kbikeguy/soft_eng/tank-project/src/ActorInfo.h
FN:26,_ZN9ActorInfoC2EOS_
FN:26,_ZN9ActorInfoD2Ev
FN:26,_ZN9ActorInfoaSEOS_
FN:26,_ZN9ActorInfoC2ERKS_
FN:26,_ZN9ActorInfoaSERKS_
FN:55,_ZN9ActorInfoC2EP5ActoriiiiiiiiiiNSt7__cxx1112basic_stringIcSt11char_traitsIcESaIcEEE
FN:73,_ZN9ActorInfoC2Ev
FNDA:1863,_ZN9ActorInfoC2ERKS_
FNDA:2120,_ZN9ActorInfoD2Ev
FNDA:42,_ZN9ActorInfoC2EOS_
FNDA:22,_ZN9ActorInfoaSEOS_
FNDA:142,_ZN9ActorInfoC2EP5ActoriiiiiiiiiiNSt7__cxx1112basic_stringIcSt11char_traitsIcESaIcEEE
FNDA:6,_ZN9ActorInfoaSERKS_
FNDA:73,_ZN9ActorInfoC2Ev
FNF:7
FNH:7
DA:26,4053
DA:55,142
DA:67,142
DA:70,142
DA:73,73
DA:75,73
LF:6
LH:6
end_of_record
TN:
SF:/home/kbikeguy/soft_eng/tank-project/src/ConfigReader.cpp
FN:3,_Z6loadAIRbRSt6vectorINSt7__cxx1112basic_stringIcSt11char_traitsIcESaIcEEESaIS6_EERS6_RS0_ISt4pairIiiESaISC_EES9_RiSG_
FN:68,_Z14setFieldParamsNSt7__cxx1112basic_stringIcSt11char_traitsIcESaIcEEERS4_RiS6_S6_RSt6vectorIS4_SaIS4_EE
FN:81,_Z12setAttributeRNSt7__cxx1112basic_stringIcSt11char_traitsIcESaIcEEERiii
FN:92,_Z13loadBackImageRNSt7__cxx1112basic_stringIcSt11char_traitsIcESaIcEEERSt6vectorIS4_SaIS4_EE
FN:100,_Z21loadObstacleLocationsNSt7__cxx1112basic_stringIcSt11char_traitsIcESaIcEEERS4_iiSt6vectorISt4pairIiiESaIS8_EERSA_SB_SB_SB_SB_SB_RbSC_
FN:155,_Z10isObstacleNSt7__cxx1112basic_stringIcSt11char_traitsIcESaIcEEE
FN:162,_Z10loadImagesNSt7__cxx1112basic_stringIcSt11char_traitsIcESaIcEEES4_RSt6vectorIS4_SaIS4_EES8_S8_S8_S8_
FN:179,_Z8addImageNSt7__cxx1112basic_stringIcSt11char_traitsIcESaIcEEERSt6vectorIS4_SaIS4_EE
FN:200,_Z13setTankParamsNSt7__cxx1112basic_stringIcSt11char_traitsIcESaIcEEERS4_RiS6_S6_S6_S6_S6_S6_i
FN:223,_Z11writeConfigRSt14basic_ofstreamIcSt11char_traitsIcEE
FN:285,_GLOBAL__sub_I_ConfigReader.cpp
FN:285,_Z41__static_initialization_and_destruction_0ii
FNDA:0,_Z12setAttributeRNSt7__cxx1112basic_stringIcSt11char_traitsIcESaIcEEERiii
FNDA:0,_Z10isObstacleNSt7__cxx1112basic_stringIcSt11char_traitsIcESaIcEEE
FNDA:0,_Z11writeConfigRSt14basic_ofstreamIcSt11char_traitsIcEE
FNDA:0,_Z13loadBackImageRNSt7__cxx1112basic_stringIcSt11char_traitsIcESaIcEEERSt6vectorIS4_SaIS4_EE
FNDA:2,_GLOBAL__sub_I_ConfigReader.cpp
FNDA:0,_Z21loadObstacleLocationsNSt7__cxx1112basic_stringIcSt11char_traitsIcESaIcEEERS4_iiSt6vectorISt4pairIiiESaIS8_EERSA_SB_SB_SB_SB_SB_RbSC_
FNDA:0,_Z14setFieldParamsNSt7__cxx1112basic_stringIcSt11char_traitsIcESaIcEEERS4_RiS6_S6_RSt6vectorIS4_SaIS4_EE
FNDA:0,_Z8addImageNSt7__cxx1112basic_stringIcSt11char_traitsIcESaIcEEERSt6vectorIS4_SaIS4_EE
FNDA:2,_Z41__static_initialization_and_destruction_0ii
FNDA:0,_Z10loadImagesNSt7__cxx1112basic_stringIcSt11char_traitsIcESaIcEEES4_RSt6vectorIS4_SaIS4_EES8_S8_S8_S8_
FNDA:0,_Z13setTankParamsNSt7__cxx1112basic_stringIcSt11char_traitsIcESaIcEEERS4_RiS6_S6_S6_S6_S6_S6_i
FNDA:0,_Z6loadAIRbRSt6vectorINSt7__cxx1112basic_stringIcSt11char_traitsIcESaIcEEESaIS6_EERS6_RS0_ISt4pairIiiESaISC_EES9_RiSG_
FNF:12
FNH:2
DA:3,0
DA:11,0
DA:13,0
DA:14,0
DA:15,0
DA:16,0
DA:18,0
DA:19,0
DA:21,0
DA:23,0
DA:24,0
DA:26,0
DA:27,0
DA:28,0
DA:29,0
DA:31,0
DA:32,0
DA:33,0
DA:35,0
DA:38,0
DA:39,0
DA:41,0
DA:43,0
DA:45,0
DA:46,0
DA:48,0
DA:49,0
DA:51,0
DA:52,0
DA:56,0
DA:57,0
DA:58,0
DA:61,0
DA:62,0
DA:64,0
DA:65,0
DA:68,0
DA:71,0
DA:72,0
DA:73,0
DA:74,0
DA:75,0
DA:76,0
DA:77,0
DA:78,0
DA:79,0
DA:81,0
DA:83,0
DA:85,0
DA:86,0
DA:88,0
DA:89,0
DA:90,0
DA:92,0
DA:94,0
DA:95,0
DA:96,0
DA:97,0
DA:100,0
DA:106,0
DA:107,0
DA:109,0
DA:111,0
DA:113,0
DA:114,0
DA:115,0
DA:116,0
DA:117,0
DA:121,0
DA:122,0
DA:123,0
DA:124,0
DA:125,0
DA:126,0
DA:127,0
DA:129,0
DA:130,0
DA:131,0
DA:133,0
DA:134,0
DA:136,0
DA:137,0
DA:139,0
DA:140,0
DA:142,0
DA:143,0
DA:146,0
DA:148,0
DA:152,0
DA:155,0
DA:157,0
DA:158,0
DA:162,0
DA:166,0
DA:167,0
DA:168,0
DA:169,0
DA:170,0
DA:171,0
DA:172,0
DA:173,0
DA:174,0
DA:175,0
DA:176,0
DA:179,0
DA:181,0
DA:182,0
DA:183,0
DA:185,0
DA:187,0
DA:188,0
DA:192,0
DA:193,0
DA:194,0
DA:197,0
DA:200,0
DA:203,0
DA:204,0
DA:205,0
DA:206,0
DA:207,0
DA:208,0
DA:209,0
DA:210,0
DA:211,0
DA:212,0
DA:213,0
DA:214,0
DA:215,0
DA:216,0
DA:218,0
DA:223,0
DA:284,0
DA:285,6
LF:134
LH:1
end_of_record
TN:
SF:/home/kbikeguy/soft_eng/tank-project/src/Crate.cpp
FN:19,_ZN5CrateC2Effii
FN:35,_ZN5Crate4drawEii
FN:53,_GLOBAL__sub_I_Crate.cpp
FN:53,_Z41__static_initialization_and_destruction_0ii
FNDA:2,_GLOBAL__sub_I_Crate.cpp
FNDA:0,_ZN5Crate4drawEii
FNDA:2,_Z41__static_initialization_and_destruction_0ii
FNDA:0,_ZN5CrateC2Effii
FNF:4
FNH:2
DA:19,0
DA:21,0
DA:22,0
DA:23,0
DA:24,0
DA:25,0
DA:26,0
DA:27,0
DA:35,0
DA:37,0
DA:38,0
DA:39,0
DA:40,0
DA:41,0
DA:42,0
DA:43,0
DA:44,0
DA:45,0
DA:46,0
DA:47,0
DA:48,0
DA:49,0
DA:50,0
DA:51,0
DA:52,0
DA:53,6
LF:26
LH:1
end_of_record
TN:
SF:/home/kbikeguy/soft_eng/tank-project/src/Drawable.h
FN:35,_ZN8DrawableC2Ev
FN:36,_ZN8DrawableD2Ev
FN:72,_ZN4MenuD2Ev
FN:117,_ZN10ProjectileD2Ev
FN:140,_ZN12TankDrawableD2Ev
FNDA:0,_ZN12TankDrawableD2Ev
FNDA:0,_ZN8DrawableC2Ev
FNDA:0,_ZN4MenuD2Ev
FNDA:0,_ZN10ProjectileD2Ev
FNDA:0,_ZN8DrawableD2Ev
FNF:5
FNH:0
DA:35,0
DA:36,0
DA:72,0
DA:117,0
DA:140,0
LF:5
LH:0
end_of_record
TN:
SF:/home/kbikeguy/soft_eng/tank-project/src/DynamicLoader.cpp
FN:19,_Z17dynamicTankLoaderSt6vectorINSt7__cxx1112basic_stringIcSt11char_traitsIcESaIcEEESaIS5_EE
FN:54,_Z41__static_initialization_and_destruction_0ii
FN:54,_GLOBAL__sub_I_DynamicLoader.cpp
FNDA:2,_Z41__static_initialization_and_destruction_0ii
FNDA:3,_Z17dynamicTankLoaderSt6vectorINSt7__cxx1112basic_stringIcSt11char_traitsIcESaIcEEESaIS5_EE
FNDA:2,_GLOBAL__sub_I_DynamicLoader.cpp
FNF:3
FNH:3
DA:19,3
DA:21,3
DA:22,6
DA:23,6
DA:24,6
DA:27,5
DA:30,2
DA:31,2
DA:32,2
DA:35,2
DA:36,2
DA:38,0
DA:39,0
DA:43,2
DA:44,2
DA:45,2
DA:46,0
DA:48,2
DA:52,6
DA:54,6
LF:20
LH:17
end_of_record
TN:
SF:/home/kbikeguy/soft_eng/tank-project/src/GameField.cpp
FN:14,_ZN9GameFieldC2Ev
FN:31,_ZN9GameFieldD2Ev
FN:45,_ZN9GameFieldC2Eii
FN:67,_ZN9GameFieldC2EiiSt6vectorI9ActorInfoSaIS1_EE
FN:91,_ZN9GameFieldC2EiiSt6vectorI9ActorInfoSaIS1_EEi
FN:110,_ZN9GameFieldC2EiiSt6vectorI9ActorInfoSaIS1_EEPFv7MapDataS3_iE
FN:130,_ZN9GameFieldC2EiiSt6vectorI9ActorInfoSaIS1_EEPFv7MapDataS3_iEP4Game
FN:156,_ZN9GameFieldC2EiiSt6vectorI9ActorInfoSaIS1_EEPFv7MapDataS3_iEi
FN:182,_ZN9GameField12getTurnCountEv
FN:192,_ZN9GameField8getWidthEv
FN:202,_ZN9GameField9getHeightEv
FN:212,_ZN9GameField6getMapEv
FN:222,_ZN9GameField9updateMapEv
FN:240,_ZN9GameField10setSPECIALEi10attributes
FN:325,_ZN9GameField11animateMoveER9ActorInfo
FN:422,_ZN9GameField8runMovesER9ActorInfoR7MapDataR12PositionData
FN:733,_ZN9GameField11checkHealthER9ActorInfob
FN:770,_ZN9GameField17checkObjectStrikeER9ActorInfo
FN:878,_ZN9GameField12crate_o_doomEiiR9ActorInfo
FN:983,_ZN9GameField17create_fog_of_warER7MapData9ActorInfo
FN:1067,_ZN9GameField19checkObjectRegrowthEv
FN:1109,_ZN9GameField8nextTurnEv
FN:1265,_ZN9GameField8addActorE9ActorInfo
FN:1276,_ZN9GameField16checkForCheatersEi
FN:1300,_ZN9GameField11addObstacleEiii
FN:1314,_ZN9GameField14removeObstacleEii
FN:1319,_ZN9GameField11getDeceasedEv
FN:1329,_ZN9GameField9getActorsEv
FN:1339,_ZN9GameField16getActorsPointerEv
FN:1351,_ZN9GameField14getActorsConstEv
FN:1361,_ZN9GameField6getSFXEv
FN:1371,_ZN9GameField13getSFXPointerEv
FN:1383,_ZN9GameField11getSFXConstEv
FN:1393,_ZN9GameField8clearSFXEv
FN:1403,_ZN9GameField17findActorsByCoordEii
FN:1422,_ZN9GameField4cullEv
FN:1448,_ZN9GameField10getMapDataEv
FN:1462,_ZN9GameField13actorInfoByIdEi
FN:1483,_ZN9GameField10obstacleAtEii
FN:1489,_ZN9GameField9getWinnerB5cxx11Ev
FN:1500,_GLOBAL__sub_I_GameField.cpp
FN:1500,_Z41__static_initialization_and_destruction_0ii
FNDA:0,_ZN9GameField16getActorsPointerEv
FNDA:1,_ZN9GameField9getHeightEv
FNDA:12,_ZN9GameFieldC2Ev
FNDA:1,_ZN9GameField14removeObstacleEii
FNDA:2,_ZN9GameField8getWidthEv
FNDA:0,_ZN9GameField19checkObjectRegrowthEv
FNDA:2,_Z41__static_initialization_and_destruction_0ii
FNDA:0,_ZN9GameField11animateMoveER9ActorInfo
FNDA:586,_ZN9GameField10obstacleAtEii
FNDA:0,_ZN9GameField6getSFXEv
FNDA:20,_ZN9GameFieldC2EiiSt6vectorI9ActorInfoSaIS1_EE
FNDA:523,_ZN9GameField9updateMapEv
FNDA:31,_ZN9GameField6getMapEv
FNDA:0,_ZN9GameField8clearSFXEv
FNDA:3,_ZN9GameField10getMapDataEv
FNDA:2,_GLOBAL__sub_I_GameField.cpp
FNDA:28,_ZN9GameField11addObstacleEiii
FNDA:162,_ZN9GameField17checkObjectStrikeER9ActorInfo
FNDA:67,_ZN9GameFieldD2Ev
FNDA:1,_ZN9GameField10setSPECIALEi10attributes
FNDA:63,_ZN9GameField8nextTurnEv
FNDA:1,_ZN9GameField12getTurnCountEv
FNDA:0,_ZN9GameField11getDeceasedEv
FNDA:0,_ZN9GameField13getSFXPointerEv
FNDA:64,_ZN9GameField4cullEv
FNDA:38,_ZN9GameField8addActorE9ActorInfo
FNDA:0,_ZN9GameFieldC2EiiSt6vectorI9ActorInfoSaIS1_EEPFv7MapDataS3_iEi
FNDA:0,_ZN9GameFieldC2EiiSt6vectorI9ActorInfoSaIS1_EEPFv7MapDataS3_iE
FNDA:0,_ZN9GameField12crate_o_doomEiiR9ActorInfo
FNDA:32,_ZN9GameField9getActorsEv
FNDA:0,_ZN9GameField9getWinnerB5cxx11Ev
FNDA:170,_ZN9GameField11checkHealthER9ActorInfob
FNDA:27,_ZN9GameFieldC2Eii
FNDA:200,_ZN9GameField8runMovesER9ActorInfoR7MapDataR12PositionData
FNDA:0,_ZN9GameField14getActorsConstEv
FNDA:278,_ZN9GameField17create_fog_of_warER7MapData9ActorInfo
FNDA:0,_ZN9GameField11getSFXConstEv
FNDA:1,_ZN9GameField16checkForCheatersEi
FNDA:2,_ZN9GameField17findActorsByCoordEii
FNDA:0,_ZN9GameFieldC2EiiSt6vectorI9ActorInfoSaIS1_EEPFv7MapDataS3_iEP4Game
FNDA:20,_ZN9GameField13actorInfoByIdEi
FNDA:8,_ZN9GameFieldC2EiiSt6vectorI9ActorInfoSaIS1_EEi
FNF:42
FNH:28
DA:14,12
DA:16,12
DA:17,12
DA:18,12
DA:19,12
DA:20,12
DA:21,12
DA:22,12
DA:23,12
DA:24,12
DA:31,134
DA:33,139
DA:35,72
DA:36,65
DA:38,67
DA:45,27
DA:48,27
DA:49,27
DA:50,27
DA:53,27
DA:54,27
DA:57,27
DA:58,27
DA:59,27
DA:60,27
DA:67,20
DA:68,20
DA:71,20
DA:72,20
DA:73,20
DA:76,20
DA:77,20
DA:80,20
DA:81,20
DA:82,20
DA:83,20
DA:84,20
DA:91,8
DA:92,8
DA:95,8
DA:96,8
DA:97,8
DA:100,8
DA:101,8
DA:104,8
DA:105,8
DA:106,8
DA:107,8
DA:108,8
DA:110,0
DA:111,0
DA:112,0
DA:115,0
DA:116,0
DA:117,0
DA:120,0
DA:121,0
DA:124,0
DA:125,0
DA:126,0
DA:127,0
DA:128,0
DA:130,0
DA:132,0
DA:135,0
DA:136,0
DA:137,0
DA:140,0
DA:141,0
DA:144,0
DA:145,0
DA:148,0
DA:149,0
DA:151,0
DA:152,0
DA:153,0
DA:154,0
DA:156,0
DA:158,0
DA:161,0
DA:162,0
DA:163,0
DA:166,0
DA:167,0
DA:170,0
DA:171,0
DA:172,0
DA:173,0
DA:174,0
DA:182,1
DA:184,1
DA:192,2
DA:194,2
DA:202,1
DA:204,1
DA:212,31
DA:214,31
DA:222,523
DA:225,523
DA:226,1547
DA:229,1024
DA:230,978
DA:233,523
DA:240,1
DA:242,1
DA:244,2
DA:247,1
DA:250,1
DA:251,1
DA:252,1
DA:255,1
DA:258,1
DA:259,1
DA:260,1
DA:261,1
DA:262,1
DA:263,1
DA:266,1
DA:268,0
DA:269,0
DA:272,1
DA:274,0
DA:275,0
DA:278,1
DA:280,0
DA:281,0
DA:282,0
DA:285,1
DA:287,0
DA:288,0
DA:291,1
DA:293,0
DA:294,0
DA:297,1
DA:299,0
DA:300,0
DA:306,0
DA:307,0
DA:310,1
DA:325,0
DA:328,0
DA:329,0
DA:332,0
DA:333,0
DA:334,0
DA:335,0
DA:338,0
DA:345,0
DA:347,0
DA:350,0
DA:351,0
DA:353,0
DA:357,0
DA:361,0
DA:363,0
DA:365,0
DA:367,0
DA:382,0
DA:385,0
DA:387,0
DA:389,0
DA:391,0
DA:394,0
DA:396,0
DA:397,0
DA:398,0
DA:399,0
DA:400,0
DA:401,0
DA:405,0
DA:408,0
DA:409,0
DA:412,0
DA:413,0
DA:422,200
DA:425,200
DA:426,200
DA:430,200
DA:432,200
DA:437,200
DA:438,38
DA:441,162
DA:442,162
DA:445,162
DA:447,34
DA:448,60
DA:449,1
DA:450,1
DA:451,1
DA:452,1
DA:453,1
DA:454,26
DA:456,8
DA:457,34
DA:459,22
DA:460,38
DA:461,0
DA:462,0
DA:463,0
DA:464,0
DA:465,0
DA:466,16
DA:468,6
DA:469,22
DA:471,34
DA:472,62
DA:473,0
DA:474,0
DA:475,0
DA:476,0
DA:477,0
DA:478,28
DA:480,6
DA:481,34
DA:483,58
DA:484,110
DA:485,0
DA:486,0
DA:487,0
DA:488,0
DA:489,0
DA:490,52
DA:492,6
DA:493,58
DA:495,4
DA:496,5
DA:497,0
DA:498,0
DA:499,0
DA:500,0
DA:501,0
DA:503,1
DA:504,1
DA:508,3
DA:509,4
DA:511,4
DA:512,6
DA:513,0
DA:514,0
DA:515,0
DA:516,0
DA:517,0
DA:519,2
DA:520,2
DA:524,2
DA:525,4
DA:527,3
DA:528,4
DA:529,0
DA:530,0
DA:531,0
DA:532,0
DA:533,0
DA:535,1
DA:536,1
DA:540,2
DA:541,3
DA:543,3
DA:544,4
DA:545,0
DA:546,0
DA:547,0
DA:548,0
DA:549,0
DA:551,1
DA:552,1
DA:556,2
DA:557,3
DA:559,0
DA:560,0
DA:564,162
DA:565,162
DA:569,162
DA:572,162
DA:574,0
DA:575,0
DA:578,0
DA:580,0
DA:582,0
DA:586,162
DA:588,127
DA:590,15
DA:591,15
DA:595,444
DA:597,317
DA:598,112
DA:600,951
DA:601,316
DA:602,177
DA:603,454
DA:606,10
DA:610,1
DA:611,1
DA:614,1
DA:616,1
DA:619,1
DA:622,0
DA:625,1
DA:628,1
DA:635,0
DA:639,1
DA:641,1
DA:642,1
DA:645,1
DA:649,9
DA:652,2
DA:655,2
DA:658,2
DA:660,0
DA:663,0
DA:664,0
DA:668,2
DA:672,7
DA:675,7
DA:678,7
DA:682,7
DA:683,7
DA:686,7
DA:687,5
DA:689,7
DA:695,162
DA:696,162
DA:699,162
DA:702,0
DA:703,0
DA:706,0
DA:708,0
DA:711,0
DA:714,0
DA:715,0
DA:718,0
DA:733,170
DA:736,170
DA:738,24
DA:740,24
DA:741,24
DA:742,24
DA:743,24
DA:744,24
DA:748,146
DA:750,0
DA:752,0
DA:753,0
DA:754,0
DA:755,0
DA:756,0
DA:759,146
DA:770,162
DA:772,162
DA:773,162
DA:776,162
DA:777,42
DA:780,120
DA:781,120
DA:785,0
DA:786,0
DA:789,0
DA:791,0
DA:793,0
DA:795,0
DA:796,0
DA:799,0
DA:801,0
DA:803,0
DA:804,0
DA:808,0
DA:814,0
DA:816,0
DA:818,0
DA:820,0
DA:821,0
DA:824,0
DA:826,0
DA:828,0
DA:829,0
DA:832,0
DA:834,0
DA:835,0
DA:839,0
DA:844,0
DA:846,0
DA:848,0
DA:850,0
DA:853,0
DA:854,0
DA:856,0
DA:858,0
DA:860,0
DA:861,0
DA:865,0
DA:870,0
DA:878,0
DA:882,0
DA:884,0
DA:885,0
DA:886,0
DA:887,0
DA:889,0
DA:891,0
DA:895,0
DA:898,0
DA:899,0
DA:901,0
DA:903,0
DA:906,0
DA:908,0
DA:909,0
DA:913,0
DA:916,0
DA:917,0
DA:919,0
DA:921,0
DA:924,0
DA:927,0
DA:930,0
DA:931,0
DA:933,0
DA:935,0
DA:938,0
DA:940,0
DA:941,0
DA:945,0
DA:947,0
DA:951,0
DA:953,0
DA:955,0
DA:958,0
DA:960,0
DA:961,0
DA:962,0
DA:965,0
DA:968,0
DA:971,0
DA:975,0
DA:983,278
DA:985,278
DA:986,120
DA:989,158
DA:991,158
DA:992,158
DA:993,158
DA:994,158
DA:996,316
DA:997,158
DA:998,158
DA:999,158
DA:1000,158
DA:1002,322
DA:1004,368
DA:1006,204
DA:1008,204
DA:1009,204
DA:1011,204
DA:1013,426
DA:1015,270
DA:1016,156
DA:1020,204
DA:1023,0
DA:1024,0
DA:1026,0
DA:1027,0
DA:1029,0
DA:1032,0
DA:1033,0
DA:1034,0
DA:1035,0
DA:1037,0
DA:1038,0
DA:1040,0
DA:1041,0
DA:1043,0
DA:1056,158
DA:1067,0
DA:1069,0
DA:1071,0
DA:1073,0
DA:1074,0
DA:1075,0
DA:1079,0
DA:1081,0
DA:1083,0
DA:1084,0
DA:1085,0
DA:1090,0
DA:1092,0
DA:1094,0
DA:1095,0
DA:1096,0
DA:1099,0
DA:1109,63
DA:1111,63
DA:1113,0
DA:1114,0
DA:1118,126
DA:1119,126
DA:1120,63
DA:1121,63
DA:1122,126
DA:1124,63
DA:1125,0
DA:1127,181
DA:1129,118
DA:1131,118
DA:1132,0
DA:1135,118
DA:1137,118
DA:1138,0
DA:1140,118
DA:1142,670
DA:1144,276
DA:1146,276
DA:1148,0
DA:1149,0
DA:1150,0
DA:1153,276
DA:1154,276
DA:1155,276
DA:1156,276
DA:1157,276
DA:1158,276
DA:1159,276
DA:1160,276
DA:1161,276
DA:1162,276
DA:1164,276
DA:1165,200
DA:1167,76
DA:1170,76
DA:1171,76
DA:1172,76
DA:1173,76
DA:1176,76
DA:1179,76
DA:1181,76
DA:1183,22
DA:1184,22
DA:1185,22
DA:1187,22
DA:1192,0
DA:1194,0
DA:1195,0
DA:1196,0
DA:1197,0
DA:1200,0
DA:1201,0
DA:1204,0
DA:1208,22
DA:1210,22
DA:1212,22
DA:1213,22
DA:1214,22
DA:1215,22
DA:1216,22
DA:1217,22
DA:1218,22
DA:1219,22
DA:1220,22
DA:1221,22
DA:1223,22
DA:1224,22
DA:1225,22
DA:1230,54
DA:1231,0
DA:1237,0
DA:1238,0
DA:1241,276
DA:1242,2
DA:1244,276
DA:1249,63
DA:1250,63
DA:1253,63
DA:1254,0
DA:1257,63
DA:1258,63
DA:1265,38
DA:1267,38
DA:1268,38
DA:1269,38
DA:1276,1
DA:1278,3
DA:1280,2
DA:1282,1
DA:1283,1
DA:1284,1
DA:1285,1
DA:1286,1
DA:1289,1
DA:1300,28
DA:1302,28
DA:1303,28
DA:1314,1
DA:1316,1
DA:1317,1
DA:1319,0
DA:1321,0
DA:1329,32
DA:1331,32
DA:1339,0
DA:1342,0
DA:1343,0
DA:1351,0
DA:1353,0
DA:1361,0
DA:1363,0
DA:1371,0
DA:1374,0
DA:1375,0
DA:1383,0
DA:1385,0
DA:1393,0
DA:1395,0
DA:1396,0
DA:1403,2
DA:1405,2
DA:1408,5
DA:1410,3
DA:1411,2
DA:1414,2
DA:1422,64
DA:1425,186
DA:1427,122
DA:1429,28
DA:1430,9
DA:1432,28
DA:1433,26
DA:1435,28
DA:1437,28
DA:1441,64
DA:1448,3
DA:1450,3
DA:1462,20
DA:1464,26
DA:1466,25
DA:1467,19
DA:1470,1
DA:1483,586
DA:1485,586
DA:1489,0
DA:1491,0
DA:1493,0
DA:1495,0
DA:1496,0
DA:1499,0
DA:1500,6
LF:644
LH:339
end_of_record
TN:
SF:/home/kbikeguy/soft_eng/tank-project/src/GameFieldDrawable.cpp
FN:15,_ZN17GameFieldDrawableC2Ev
FN:23,_ZN17GameFieldDrawable4drawEii
FN:57,_Z41__static_initialization_and_destruction_0ii
FN:57,_GLOBAL__sub_I_GameFieldDrawable.cpp
FNDA:0,_ZN17GameFieldDrawable4drawEii
FNDA:2,_GLOBAL__sub_I_GameFieldDrawable.cpp
FNDA:0,_ZN17GameFieldDrawableC2Ev
FNDA:2,_Z41__static_initialization_and_destruction_0ii
FNF:4
FNH:2
DA:15,0
DA:23,0
DA:25,0
DA:28,0
DA:29,0
DA:30,0
DA:31,0
DA:32,0
DA:33,0
DA:34,0
DA:35,0
DA:36,0
DA:37,0
DA:38,0
DA:39,0
DA:40,0
DA:41,0
DA:43,0
DA:44,0
DA:45,0
DA:46,0
DA:47,0
DA:48,0
DA:49,0
DA:50,0
DA:51,0
DA:52,0
DA:53,0
DA:54,0
DA:55,0
DA:56,0
DA:57,6
LF:32
LH:1
end_of_record
TN:
SF:/home/kbikeguy/soft_eng/tank-project/src/MapData.cpp
FN:9,_ZN7MapDataC2Ev
FN:18,_ZN7MapDataC2Eii
FN:26,_ZlsRSoRK7MapData
FN:118,_ZN7MapData8printMapESt6vectorIiSaIiEE
FN:129,_Z41__static_initialization_and_destruction_0ii
FN:129,_GLOBAL__sub_I_MapData.cpp
FNDA:17,_ZN7MapDataC2Eii
FNDA:0,_ZN7MapData8printMapESt6vectorIiSaIiEE
FNDA:73,_ZN7MapDataC2Ev
FNDA:2,_GLOBAL__sub_I_MapData.cpp
FNDA:2,_Z41__static_initialization_and_destruction_0ii
FNDA:0,_ZlsRSoRK7MapData
FNF:6
FNH:4
DA:9,73
DA:12,73
DA:18,17
DA:20,17
DA:21,17
DA:22,17
DA:23,17
DA:24,17
DA:26,0
DA:30,0
DA:31,0
DA:34,0
DA:36,0
DA:37,0
DA:39,0
DA:42,0
DA:43,0
DA:45,0
DA:46,0
DA:48,0
DA:51,0
DA:53,0
DA:54,0
DA:55,0
DA:57,0
DA:58,0
DA:60,0
DA:61,0
DA:63,0
DA:64,0
DA:67,0
DA:70,0
DA:72,0
DA:74,0
DA:75,0
DA:77,0
DA:78,0
DA:80,0
DA:81,0
DA:84,0
DA:87,0
DA:89,0
DA:91,0
DA:92,0
DA:94,0
DA:95,0
DA:98,0
DA:101,0
DA:102,0
DA:103,0
DA:105,0
DA:108,0
DA:118,0
DA:120,0
DA:122,0
DA:124,0
DA:125,0
DA:126,0
DA:129,6
LF:59
LH:9
end_of_record
TN:
SF:/home/kbikeguy/soft_eng/tank-project/src/MapData.h
FN:24,_ZN7MapDataC2ERKS_
FN:24,_ZN7MapDataD2Ev
FN:24,_ZN7MapDataaSERKS_
FNDA:434,_ZN7MapDataaSERKS_
FNDA:891,_ZN7MapDataD2Ev
FNDA:801,_ZN7MapDataC2ERKS_
FNF:3
FNH:3
DA:24,2126
LF:1
LH:1
end_of_record
TN:
SF:/home/kbikeguy/soft_eng/tank-project/src/Menu.cpp
FN:25,_ZN4MenuC2EiiiiNSt7__cxx1112basic_stringIcSt11char_traitsIcESaIcEEE9directionii
FN:80,_ZN4Menu4drawEii
FN:98,_Z8drawIconffjbi
FN:128,_Z8drawAmmoffjbi
FN:154,_Z8drawTankffjbi
FN:190,_ZN4Menu11drawTextBoxEff
FN:217,_ZN4Menu15drawPlayerStatsEv
FN:251,_Z14drawBitmapTextPcff
FN:269,_Z14drawBitmapTurniff
FN:285,_GLOBAL__sub_I_Menu.cpp
FN:285,_Z41__static_initialization_and_destruction_0ii
FNDA:2,_GLOBAL__sub_I_Menu.cpp
FNDA:0,_Z8drawTankffjbi
FNDA:0,_ZN4Menu4drawEii
FNDA:0,_ZN4Menu11drawTextBoxEff
FNDA:0,_ZN4Menu15drawPlayerStatsEv
FNDA:2,_Z41__static_initialization_and_destruction_0ii
FNDA:0,_Z14drawBitmapTextPcff
FNDA:0,_ZN4MenuC2EiiiiNSt7__cxx1112basic_stringIcSt11char_traitsIcESaIcEEE9directionii
FNDA:0,_Z8drawAmmoffjbi
FNDA:0,_Z8drawIconffjbi
FNDA:0,_Z14drawBitmapTurniff
FNF:11
FNH:2
DA:25,0
DA:27,0
DA:30,0
DA:32,0
DA:34,0
DA:36,0
DA:37,0
DA:39,0
DA:41,0
DA:42,0
DA:43,0
DA:44,0
DA:45,0
DA:46,0
DA:47,0
DA:48,0
DA:49,0
DA:51,0
DA:52,0
DA:53,0
DA:54,0
DA:55,0
DA:57,0
DA:58,0
DA:60,0
DA:62,0
DA:63,0
DA:64,0
DA:65,0
DA:66,0
DA:68,0
DA:69,0
DA:71,0
DA:80,0
DA:82,0
DA:83,0
DA:85,0
DA:87,0
DA:88,0
DA:98,0
DA:100,0
DA:101,0
DA:102,0
DA:103,0
DA:104,0
DA:106,0
DA:107,0
DA:108,0
DA:109,0
DA:110,0
DA:111,0
DA:112,0
DA:113,0
DA:114,0
DA:115,0
DA:116,0
DA:117,0
DA:118,0
DA:119,0
DA:120,0
DA:128,0
DA:130,0
DA:131,0
DA:132,0
DA:133,0
DA:134,0
DA:135,0
DA:136,0
DA:137,0
DA:138,0
DA:139,0
DA:140,0
DA:141,0
DA:142,0
DA:143,0
DA:144,0
DA:145,0
DA:146,0
DA:147,0
DA:154,0
DA:156,0
DA:157,0
DA:158,0
DA:159,0
DA:161,0
DA:162,0
DA:163,0
DA:164,0
DA:165,0
DA:166,0
DA:167,0
DA:168,0
DA:169,0
DA:170,0
DA:171,0
DA:172,0
DA:173,0
DA:174,0
DA:175,0
DA:176,0
DA:177,0
DA:178,0
DA:190,0
DA:192,0
DA:193,0
DA:194,0
DA:195,0
DA:196,0
DA:197,0
DA:198,0
DA:199,0
DA:200,0
DA:201,0
DA:202,0
DA:203,0
DA:204,0
DA:205,0
DA:206,0
DA:207,0
DA:208,0
DA:217,0
DA:220,0
DA:224,0
DA:227,0
DA:230,0
DA:231,0
DA:234,0
DA:235,0
DA:238,0
DA:239,0
DA:241,0
DA:242,0
DA:251,0
DA:253,0
DA:255,0
DA:256,0
DA:258,0
DA:259,0
DA:260,0
DA:261,0
DA:269,0
DA:271,0
DA:272,0
DA:273,0
DA:274,0
DA:275,0
DA:276,0
DA:277,0
DA:279,0
DA:280,0
DA:282,0
DA:283,0
DA:284,0
DA:285,6
LF:154
LH:1
end_of_record
TN:
SF:/home/kbikeguy/soft_eng/tank-project/src/Obstacles.cpp
FN:18,_ZN9ObstaclesC2Eiffii
FN:72,_ZN9Obstacles4drawEii
FN:125,_ZN9Obstacles6regrowEiSt6vectorI9ActorInfoSaIS1_EE
FN:160,_ZN9Obstacles13set_destroyedEi
FN:163,_GLOBAL__sub_I_Obstacles.cpp
FN:163,_Z41__static_initialization_and_destruction_0ii
FNDA:2,_GLOBAL__sub_I_Obstacles.cpp
FNDA:0,_ZN9Obstacles13set_destroyedEi
FNDA:2,_Z41__static_initialization_and_destruction_0ii
FNDA:0,_ZN9Obstacles4drawEii
FNDA:0,_ZN9Obstacles6regrowEiSt6vectorI9ActorInfoSaIS1_EE
FNDA:0,_ZN9ObstaclesC2Eiffii
FNF:6
FNH:2
DA:18,0
DA:26,0
DA:27,0
DA:28,0
DA:29,0
DA:31,0
DA:33,0
DA:34,0
DA:35,0
DA:37,0
DA:39,0
DA:40,0
DA:41,0
DA:43,0
DA:45,0
DA:46,0
DA:47,0
DA:49,0
DA:51,0
DA:52,0
DA:54,0
DA:56,0
DA:60,0
DA:61,0
DA:63,0
DA:72,0
DA:74,0
DA:75,0
DA:76,0
DA:78,0
DA:79,0
DA:80,0
DA:81,0
DA:83,0
DA:85,0
DA:87,0
DA:89,0
DA:91,0
DA:93,0
DA:95,0
DA:97,0
DA:99,0
DA:101,0
DA:104,0
DA:105,0
DA:106,0
DA:107,0
DA:108,0
DA:109,0
DA:110,0
DA:111,0
DA:112,0
DA:113,0
DA:115,0
DA:116,0
DA:117,0
DA:125,0
DA:126,0
DA:127,0
DA:128,0
DA:130,0
DA:132,0
DA:134,0
DA:136,0
DA:138,0
DA:140,0
DA:141,0
DA:143,0
DA:144,0
DA:146,0
DA:148,0
DA:150,0
DA:151,0
DA:160,0
DA:162,0
DA:163,6
LF:76
LH:1
end_of_record
TN:
SF:/home/kbikeguy/soft_eng/tank-project/src/PositionData.h
FN:21,_ZN12PositionDataD2Ev
FN:21,_ZN12PositionDataC2ERKS_
FN:30,_ZN12PositionDataC2Ev
FN:31,_ZN12PositionDataC2Eiiiiii
FNDA:577,_ZN12PositionDataC2ERKS_
FNDA:69,_ZN12PositionDataC2Ev
FNDA:17,_ZN12PositionDataC2Eiiiiii
FNDA:663,_ZN12PositionDataD2Ev
FNF:4
FNH:4
DA:21,1240
DA:30,69
DA:31,17
LF:3
LH:3
end_of_record
TN:
SF:/home/kbikeguy/soft_eng/tank-project/src/Projectile.cpp
FN:20,_ZN10ProjectileC2Eiff9directionbffb
FN:86,_ZN10Projectile4drawEii
FN:143,_Z41__static_initialization_and_destruction_0ii
FN:143,_GLOBAL__sub_I_Projectile.cpp
FNDA:0,_ZN10ProjectileC2Eiff9directionbffb
FNDA:0,_ZN10Projectile4drawEii
FNDA:2,_GLOBAL__sub_I_Projectile.cpp
FNDA:2,_Z41__static_initialization_and_destruction_0ii
FNF:4
FNH:2
DA:20,0
DA:21,0
DA:23,0
DA:24,0
DA:25,0
DA:26,0
DA:27,0
DA:28,0
DA:29,0
DA:32,0
DA:34,0
DA:35,0
DA:36,0
DA:38,0
DA:39,0
DA:40,0
DA:42,0
DA:43,0
DA:44,0
DA:46,0
DA:47,0
DA:48,0
DA:50,0
DA:51,0
DA:52,0
DA:54,0
DA:55,0
DA:56,0
DA:58,0
DA:59,0
DA:60,0
DA:62,0
DA:63,0
DA:64,0
DA:65,0
DA:68,0
DA:71,0
DA:72,0
DA:75,0
DA:76,0
DA:86,0
DA:88,0
DA:90,0
DA:91,0
DA:92,0
DA:93,0
DA:96,0
DA:97,0
DA:99,0
DA:101,0
DA:102,0
DA:103,0
DA:104,0
DA:105,0
DA:106,0
DA:107,0
DA:108,0
DA:109,0
DA:110,0
DA:111,0
DA:112,0
DA:113,0
DA:114,0
DA:115,0
DA:116,0
DA:118,0
DA:121,0
DA:122,0
DA:123,0
DA:124,0
DA:125,0
DA:126,0
DA:127,0
DA:128,0
DA:129,0
DA:130,0
DA:131,0
DA:132,0
DA:133,0
DA:134,0
DA:135,0
DA:136,0
DA:137,0
DA:138,0
DA:139,0
DA:140,0
DA:141,0
DA:143,6
LF:88
LH:1
end_of_record
TN:
SF:/home/kbikeguy/soft_eng/tank-project/src/ProjectileActor.cpp
FN:11,_ZN15ProjectileActorC2Ev
FN:24,_ZN15ProjectileActorC2E9direction
FN:35,_ZN15ProjectileActor4moveE7MapData12PositionData
FN:53,_ZN15ProjectileActor6attackE7MapData12PositionData
FN:68,_ZN15ProjectileActor12setAttributeEi10attributes
FN:79,_ZN15ProjectileActor7spendAPE7MapData12PositionData
FNDA:22,_ZN15ProjectileActorC2E9direction
FNDA:120,_ZN15ProjectileActor7spendAPE7MapData12PositionData
FNDA:120,_ZN15ProjectileActor4moveE7MapData12PositionData
FNDA:0,_ZN15ProjectileActorC2Ev
FNDA:0,_ZN15ProjectileActor12setAttributeEi10attributes
FNDA:0,_ZN15ProjectileActor6attackE7MapData12PositionData
FNF:6
FNH:3
DA:11,0
DA:14,0
DA:24,22
DA:27,22
DA:35,120
DA:37,120
DA:53,0
DA:55,0
DA:68,0
DA:70,0
DA:71,0
DA:79,120
DA:81,120
LF:13
LH:6
end_of_record
TN:
SF:/home/kbikeguy/soft_eng/tank-project/src/ProjectileActor.h
FN:16,_ZN15ProjectileActorD2Ev
FN:16,_ZN15ProjectileActorD0Ev
FNDA:22,_ZN15ProjectileActorD2Ev
FNDA:22,_ZN15ProjectileActorD0Ev
FNF:2
FNH:2
DA:16,44
LF:1
LH:1
end_of_record
TN:
SF:/home/kbikeguy/soft_eng/tank-project/src/SimpleAI.cpp
FN:4,_ZN8SimpleAIC2Ev
FN:5,_ZN8SimpleAID0Ev
FN:5,_ZN8SimpleAID2Ev
FN:15,_ZN8SimpleAI4moveE7MapData12PositionData
FN:138,_ZN8SimpleAI6attackE7MapData12PositionData
FN:179,_ZN8SimpleAI12setAttributeEi10attributes
FN:200,_ZN8SimpleAI8calcDistEiiii
FN:205,_ZN8SimpleAI7spendAPE7MapData12PositionData
FN:238,maker
FN:242,_GLOBAL__sub_I_SimpleAI.cpp
FN:242,_Z41__static_initialization_and_destruction_0ii
FNDA:0,_ZN8SimpleAI4moveE7MapData12PositionData
FNDA:1,_Z41__static_initialization_and_destruction_0ii
FNDA:1,_GLOBAL__sub_I_SimpleAI.cpp
FNDA:1,_ZN8SimpleAIC2Ev
FNDA:0,_ZN8SimpleAID0Ev
FNDA:1,maker
FNDA:0,_ZN8SimpleAI6attackE7MapData12PositionData
FNDA:0,_ZN8SimpleAI12setAttributeEi10attributes
FNDA:0,_ZN8SimpleAI8calcDistEiiii
FNDA:0,_ZN8SimpleAID2Ev
FNDA:0,_ZN8SimpleAI7spendAPE7MapData12PositionData
FNF:11
FNH:4
DA:4,1
DA:5,0
DA:15,0
DA:18,0
DA:19,0
DA:20,0
DA:21,0
DA:22,0
DA:25,0
DA:37,0
DA:39,0
DA:42,0
DA:43,0
DA:44,0
DA:45,0
DA:47,0
DA:49,0
DA:51,0
DA:53,0
DA:54,0
DA:55,0
DA:56,0
DA:59,0
DA:64,0
DA:65,0
DA:66,0
DA:67,0
DA:70,0
DA:76,0
DA:78,0
DA:79,0
DA:80,0
DA:81,0
DA:84,0
DA:88,0
DA:89,0
DA:90,0
DA:91,0
DA:94,0
DA:103,0
DA:104,0
DA:106,0
DA:107,0
DA:109,0
DA:110,0
DA:112,0
DA:113,0
DA:115,0
DA:116,0
DA:118,0
DA:119,0
DA:121,0
DA:122,0
DA:124,0
DA:125,0
DA:127,0
DA:138,0
DA:141,0
DA:142,0
DA:145,0
DA:146,0
DA:148,0
DA:149,0
DA:150,0
DA:151,0
DA:152,0
DA:153,0
DA:155,0
DA:157,0
DA:158,0
DA:160,0
DA:161,0
DA:163,0
DA:164,0
DA:167,0
DA:169,0
DA:179,0
DA:181,0
DA:183,0
DA:185,0
DA:187,0
DA:200,0
DA:202,0
DA:205,0
DA:207,0
DA:209,0
DA:210,0
DA:212,0
DA:223,0
DA:224,0
DA:226,0
DA:227,0
DA:229,0
DA:230,0
DA:232,0
DA:238,1
DA:240,1
DA:242,3
LF:98
LH:4
end_of_record
TN:
SF:/home/kbikeguy/soft_eng/tank-project/src/SimpleActor.cpp
FN:11,_ZN11SimpleActor4moveE7MapData12PositionData
FN:24,_ZN11SimpleActor6attackE7MapData12PositionData
FN:34,_ZN11SimpleActorC2Ev
FN:44,_ZN11SimpleActorC2E9directionS0_
FN:55,_ZN11SimpleActor9setAttackE9direction
FN:67,_ZN11SimpleActor7setMoveE9direction
FN:79,_ZN11SimpleActor12setAttributeEi10attributes
FN:93,_ZN11SimpleActor7spendAPE7MapData12PositionData
FN:101,maker
FN:105,_Z41__static_initialization_and_destruction_0ii
FN:105,_GLOBAL__sub_I_SimpleActor.cpp
FNDA:1,_ZN11SimpleActor4moveE7MapData12PositionData
FNDA:1,maker
FNDA:0,_ZN11SimpleActor7setMoveE9direction
FNDA:0,_ZN11SimpleActor7spendAPE7MapData12PositionData
FNDA:1,_Z41__static_initialization_and_destruction_0ii
FNDA:1,_GLOBAL__sub_I_SimpleActor.cpp
FNDA:0,_ZN11SimpleActor9setAttackE9direction
FNDA:0,_ZN11SimpleActorC2E9directionS0_
FNDA:0,_ZN11SimpleActor12setAttributeEi10attributes
FNDA:0,_ZN11SimpleActor6attackE7MapData12PositionData
FNDA:1,_ZN11SimpleActorC2Ev
FNF:11
FNH:5
DA:11,1
DA:13,1
DA:24,0
DA:26,0
DA:34,1
DA:44,0
DA:55,0
DA:57,0
DA:58,0
DA:67,0
DA:69,0
DA:70,0
DA:79,0
DA:81,0
DA:82,0
DA:83,0
DA:85,0
DA:86,0
DA:87,0
DA:88,0
DA:90,0
DA:93,0
DA:95,0
DA:101,1
DA:103,1
DA:105,3
LF:26
LH:6
end_of_record
TN:
SF:/home/kbikeguy/soft_eng/tank-project/src/SimpleActor.h
FN:14,_ZN11SimpleActorD2Ev
FN:14,_ZN11SimpleActorD0Ev
FNDA:0,_ZN11SimpleActorD2Ev
FNDA:0,_ZN11SimpleActorD0Ev
FNF:2
FNH:0
DA:14,0
LF:1
LH:0
end_of_record
TN:
SF:/home/kbikeguy/soft_eng/tank-project/src/TankDrawable.cpp
FN:20,_ZN12TankDrawableC2Eiff9directioniiffb
FN:100,_ZN12TankDrawable4drawEii
FN:240,_ZN12TankDrawable9setHealthEi
FN:249,_ZN12TankDrawable13setMax_healthEi
FN:252,_GLOBAL__sub_I_TankDrawable.cpp
FN:252,_Z41__static_initialization_and_destruction_0ii
FNDA:2,_Z41__static_initialization_and_destruction_0ii
FNDA:0,_ZN12TankDrawableC2Eiff9directioniiffb
FNDA:2,_GLOBAL__sub_I_TankDrawable.cpp
FNDA:0,_ZN12TankDrawable13setMax_healthEi
FNDA:0,_ZN12TankDrawable4drawEii
FNDA:0,_ZN12TankDrawable9setHealthEi
FNF:6
FNH:2
DA:20,0
DA:22,0
DA:24,0
DA:25,0
DA:26,0
DA:27,0
DA:28,0
DA:29,0
DA:30,0
DA:31,0
DA:38,0
DA:39,0
DA:41,0
DA:43,0
DA:45,0
DA:46,0
DA:48,0
DA:50,0
DA:51,0
DA:53,0
DA:54,0
DA:56,0
DA:57,0
DA:59,0
DA:60,0
DA:62,0
DA:63,0
DA:65,0
DA:66,0
DA:68,0
DA:69,0
DA:71,0
DA:72,0
DA:74,0
DA:75,0
DA:77,0
DA:79,0
DA:80,0
DA:82,0
DA:84,0
DA:85,0
DA:86,0
DA:89,0
DA:90,0
DA:91,0
DA:100,0
DA:102,0
DA:103,0
DA:104,0
DA:106,0
DA:107,0
DA:108,0
DA:109,0
DA:110,0
DA:111,0
DA:113,0
DA:114,0
DA:116,0
DA:117,0
DA:118,0
DA:119,0
DA:120,0
DA:121,0
DA:122,0
DA:123,0
DA:124,0
DA:125,0
DA:127,0
DA:128,0
DA:129,0
DA:130,0
DA:131,0
DA:132,0
DA:134,0
DA:135,0
DA:136,0
DA:137,0
DA:138,0
DA:139,0
DA:140,0
DA:141,0
DA:142,0
DA:143,0
DA:144,0
DA:146,0
DA:147,0
DA:148,0
DA:149,0
DA:150,0
DA:151,0
DA:152,0
DA:153,0
DA:154,0
DA:155,0
DA:156,0
DA:159,0
DA:160,0
DA:161,0
DA:162,0
DA:163,0
DA:164,0
DA:165,0
DA:166,0
DA:167,0
DA:168,0
DA:169,0
DA:170,0
DA:172,0
DA:173,0
DA:174,0
DA:175,0
DA:176,0
DA:177,0
DA:178,0
DA:179,0
DA:180,0
DA:181,0
DA:182,0
DA:186,0
DA:187,0
DA:188,0
DA:189,0
DA:190,0
DA:191,0
DA:195,0
DA:196,0
DA:197,0
DA:198,0
DA:199,0
DA:200,0
DA:201,0
DA:202,0
DA:203,0
DA:204,0
DA:207,0
DA:208,0
DA:209,0
DA:210,0
DA:211,0
DA:212,0
DA:213,0
DA:214,0
DA:215,0
DA:216,0
DA:219,0
DA:220,0
DA:221,0
DA:222,0
DA:223,0
DA:224,0
DA:225,0
DA:226,0
DA:227,0
DA:228,0
DA:232,0
DA:233,0
DA:234,0
DA:240,0
DA:242,0
DA:243,0
DA:249,0
DA:251,0
DA:252,6
LF:163
LH:1
end_of_record
TN:
SF:/home/kbikeguy/soft_eng/tank-project/src/Texture.cpp
FN:81,_Z16loadTextureArraySt6vectorINSt7__cxx1112basic_stringIcSt11char_traitsIcESaIcEEESaIS5_EEPji
FN:108,_Z14LoadGLTexturesSt6vectorINSt7__cxx1112basic_stringIcSt11char_traitsIcESaIcEEESaIS5_EES7_S7_S7_S7_S7_
FN:146,_Z41__static_initialization_and_destruction_0ii
FN:146,_GLOBAL__sub_I_Texture.cpp
FNDA:0,_Z16loadTextureArraySt6vectorINSt7__cxx1112basic_stringIcSt11char_traitsIcESaIcEEESaIS5_EEPji
FNDA:0,_Z14LoadGLTexturesSt6vectorINSt7__cxx1112basic_stringIcSt11char_traitsIcESaIcEEESaIS5_EES7_S7_S7_S7_S7_
FNDA:2,_Z41__static_initialization_and_destruction_0ii
FNDA:2,_GLOBAL__sub_I_Texture.cpp
FNF:4
FNH:2
DA:19,10
DA:22,8
DA:23,8
DA:25,6
DA:26,34
DA:41,32
DA:42,14
DA:47,12
DA:48,20
DA:56,18
DA:81,0
DA:84,0
DA:86,0
DA:88,0
DA:92,0
DA:93,0
DA:95,0
DA:98,0
DA:108,0
DA:113,0
DA:116,0
DA:119,0
DA:122,0
DA:125,0
DA:128,0
DA:131,0
DA:134,0
DA:137,0
DA:140,0
DA:142,0
DA:145,0
DA:146,6
LF:32
LH:11
end_of_record
TN:
SF:/home/kbikeguy/soft_eng/tank-project/src/attributes.h
FN:21,_ZN10attributesC2Eiiiiiii
FNDA:238,_ZN10attributesC2Eiiiiiii
FNF:1
FNH:1
DA:21,238
DA:22,238
DA:23,238
DA:24,238
DA:25,238
DA:26,238
DA:27,238
DA:28,238
DA:29,238
DA:30,238
LF:10
LH:10
end_of_record
TN:
SF:/home/kbikeguy/soft_eng/tank-project/src/callbacks.cpp
FN:9,_Z7actualYi
FN:18,_Z7displayv
FN:30,_Z7reshapeii
FN:47,_Z8ticktocki
FN:55,_Z7onClosev
FN:67,_Z8keyboardhii
FN:70,_GLOBAL__sub_I_callbacks.cpp
FN:70,_Z41__static_initialization_and_destruction_0ii
FNDA:0,_Z7displayv
FNDA:2,_GLOBAL__sub_I_callbacks.cpp
FNDA:0,_Z8keyboardhii
FNDA:0,_Z7actualYi
FNDA:0,_Z7onClosev
FNDA:0,_Z7reshapeii
FNDA:0,_Z8ticktocki
FNDA:2,_Z41__static_initialization_and_destruction_0ii
FNF:8
FNH:2
DA:9,0
DA:11,0
DA:18,0
DA:20,0
DA:21,0
DA:30,0
DA:32,0
DA:34,0
DA:36,0
DA:38,0
DA:39,0
DA:47,0
DA:50,0
DA:52,0
DA:53,0
DA:55,0
DA:57,0
DA:58,0
DA:67,0
DA:69,0
DA:70,6
LF:21
LH:1
end_of_record
TN:
SF:/home/kbikeguy/soft_eng/tank-project/src/event.cpp
FN:16,_ZN5EventD2Ev
FN:16,_ZN5EventD0Ev
FN:25,_ZN9InitEventC2Eii
FN:36,_ZN9InitEvent8doActionER4Game
FN:51,_Z15updateDrawablesR4Game
FN:123,_ZN12DisplayEvent8doActionER4Game
FN:193,_ZN12ReshapeEventC2Eii
FN:204,_ZN12ReshapeEvent8doActionER4Game
FN:222,_ZN10TimerEventC2ERi
FN:239,_ZN10TimerEvent8doActionER4Game
FN:250,_ZN10CloseEventC2Ev
FN:261,_ZN10CloseEvent8doActionER4Game
FN:273,_ZN13KeyboardEventC2Ehii
FN:276,_ZN13KeyboardEvent8doActionER4Game
FN:286,_GLOBAL__sub_I_event.cpp
FN:286,_Z41__static_initialization_and_destruction_0ii
FNDA:0,_Z15updateDrawablesR4Game
FNDA:2,_Z41__static_initialization_and_destruction_0ii
FNDA:0,_ZN13KeyboardEvent8doActionER4Game
FNDA:0,_ZN5EventD0Ev
FNDA:0,_ZN9InitEventC2Eii
FNDA:0,_ZN10CloseEventC2Ev
FNDA:0,_ZN5EventD2Ev
FNDA:0,_ZN10TimerEvent8doActionER4Game
FNDA:0,_ZN12ReshapeEvent8doActionER4Game
FNDA:0,_ZN9InitEvent8doActionER4Game
FNDA:0,_ZN13KeyboardEventC2Ehii
FNDA:0,_ZN12DisplayEvent8doActionER4Game
FNDA:0,_ZN10CloseEvent8doActionER4Game
FNDA:0,_ZN10TimerEventC2ERi
FNDA:2,_GLOBAL__sub_I_event.cpp
FNDA:0,_ZN12ReshapeEventC2Eii
FNF:16
FNH:2
DA:16,0
DA:25,0
DA:36,0
DA:38,0
DA:39,0
DA:40,0
DA:51,0
DA:53,0
DA:54,0
DA:55,0
DA:56,0
DA:58,0
DA:59,0
DA:61,0
DA:62,0
DA:64,0
DA:66,0
DA:70,0
DA:71,0
DA:72,0
DA:74,0
DA:76,0
DA:77,0
DA:79,0
DA:82,0
DA:85,0
DA:86,0
DA:87,0
DA:89,0
DA:90,0
DA:93,0
DA:95,0
DA:96,0
DA:97,0
DA:98,0
DA:100,0
DA:104,0
DA:107,0
DA:108,0
DA:110,0
DA:112,0
DA:123,0
DA:125,0
DA:126,0
DA:129,0
DA:131,0
DA:132,0
DA:134,0
DA:136,0
DA:139,0
DA:141,0
DA:144,0
DA:146,0
DA:147,0
DA:150,0
DA:152,0
DA:155,0
DA:157,0
DA:158,0
DA:161,0
DA:163,0
DA:164,0
DA:166,0
DA:168,0
DA:171,0
DA:173,0
DA:175,0
DA:176,0
DA:178,0
DA:179,0
DA:181,0
DA:184,0
DA:193,0
DA:204,0
DA:206,0
DA:207,0
DA:208,0
DA:209,0
DA:210,0
DA:211,0
DA:212,0
DA:213,0
DA:222,0
DA:224,0
DA:225,0
DA:226,0
DA:227,0
DA:239,0
DA:241,0
DA:242,0
DA:243,0
DA:244,0
DA:250,0
DA:261,0
DA:263,0
DA:264,0
DA:273,0
DA:274,0
DA:276,0
DA:278,0
DA:280,0
DA:282,0
DA:284,0
DA:286,6
LF:104
LH:1
end_of_record
TN:
SF:/home/kbikeguy/soft_eng/tank-project/src/event.h
FN:20,_ZN5EventC2Ev
FN:33,_ZN9InitEventD2Ev
FN:33,_ZN9InitEventD0Ev
FN:49,_ZN12DisplayEventD2Ev
FN:49,_ZN12DisplayEventD0Ev
FN:49,_ZN12DisplayEventC2Ev
FN:62,_ZN12ReshapeEventD0Ev
FN:62,_ZN12ReshapeEventD2Ev
FN:79,_ZN10TimerEventD0Ev
FN:79,_ZN10TimerEventD2Ev
FN:96,_ZN10CloseEventD2Ev
FN:96,_ZN10CloseEventD0Ev
FN:109,_ZN13KeyboardEventD2Ev
FN:109,_ZN13KeyboardEventD0Ev
FNDA:0,_ZN13KeyboardEventD0Ev
FNDA:0,_ZN10TimerEventD0Ev
FNDA:0,_ZN5EventC2Ev
FNDA:0,_ZN10TimerEventD2Ev
FNDA:0,_ZN12DisplayEventD0Ev
FNDA:0,_ZN12DisplayEventC2Ev
FNDA:0,_ZN10CloseEventD0Ev
FNDA:0,_ZN12DisplayEventD2Ev
FNDA:0,_ZN10CloseEventD2Ev
FNDA:0,_ZN12ReshapeEventD2Ev
FNDA:0,_ZN9InitEventD0Ev
FNDA:0,_ZN13KeyboardEventD2Ev
FNDA:0,_ZN12ReshapeEventD0Ev
FNDA:0,_ZN9InitEventD2Ev
FNF:14
FNH:0
DA:20,0
DA:33,0
DA:49,0
DA:62,0
DA:79,0
DA:96,0
DA:109,0
LF:7
LH:0
end_of_record
TN:
SF:/home/kbikeguy/soft_eng/tank-project/src/game.cpp
FN:22,_ZN4GameC2Ev
FN:36,_ZN4GameC2E8gameMode
FN:49,_ZN4GameD2Ev
FN:66,_ZN4Game20convertGLXCoordinateEi
FN:91,_ZN4Game20convertGLYCoordinateEi
FN:115,_ZL10isplayableRKSt6vectorI9ActorInfoSaIS0_EE
FN:137,_ZN4Game8gameOverESt6vectorI9ActorInfoSaIS1_EES3_
FN:424,_ZN4Game11executeTurnEv
FN:492,_Z14displayWrapper7MapDataSt6vectorI9ActorInfoSaIS1_EEi
FN:505,_ZN4Game13initGameStateEv
FN:794,_ZN4Game12createConfigEv
FN:825,_ZN4Game9closeDownEv
FN:837,_ZN4Game8earlyOutEv
FN:843,_ZN4Game19addGenericObstaclesEP9GameFieldSt6vectorISt4pairIiiESaIS4_EES6_P9Obstacles
FN:866,_ZN4Game9addCratesEP9GameFieldSt6vectorISt4pairIiiESaIS4_EES6_P8Drawable
FN:889,_ZN4Game8addTreesEP9GameFieldSt6vectorISt4pairIiiESaIS4_EEP9Obstacles
FN:903,_ZN4Game8addRocksEP9GameFieldSt6vectorISt4pairIiiESaIS4_EES6_P9Obstacles
FN:927,_ZN4Game9addBushesEP9GameFieldSt6vectorISt4pairIiiESaIS4_EEP9Obstacles
FN:940,_ZN4Game8addWaterEP9GameFieldSt6vectorISt4pairIiiESaIS4_EES6_P8Drawable
FN:960,_Z41__static_initialization_and_destruction_0ii
FN:960,_GLOBAL__sub_I_game.cpp
FNDA:0,_ZN4Game20convertGLYCoordinateEi
FNDA:0,_ZN4Game19addGenericObstaclesEP9GameFieldSt6vectorISt4pairIiiESaIS4_EES6_P9Obstacles
FNDA:0,_Z14displayWrapper7MapDataSt6vectorI9ActorInfoSaIS1_EEi
FNDA:0,_ZN4GameC2Ev
FNDA:0,_ZN4Game20convertGLXCoordinateEi
FNDA:0,_ZN4GameD2Ev
FNDA:2,_Z41__static_initialization_and_destruction_0ii
FNDA:0,_ZN4Game8addWaterEP9GameFieldSt6vectorISt4pairIiiESaIS4_EES6_P8Drawable
FNDA:0,_ZN4Game8gameOverESt6vectorI9ActorInfoSaIS1_EES3_
FNDA:0,_ZN4Game8addRocksEP9GameFieldSt6vectorISt4pairIiiESaIS4_EES6_P9Obstacles
FNDA:2,_GLOBAL__sub_I_game.cpp
FNDA:0,_ZN4Game8addTreesEP9GameFieldSt6vectorISt4pairIiiESaIS4_EEP9Obstacles
FNDA:0,_ZN4Game11executeTurnEv
FNDA:0,_ZN4Game9addBushesEP9GameFieldSt6vectorISt4pairIiiESaIS4_EEP9Obstacles
FNDA:0,_ZN4Game12createConfigEv
FNDA:0,_ZN4GameC2E8gameMode
FNDA:0,_ZN4Game13initGameStateEv
FNDA:0,_ZN4Game9closeDownEv
FNDA:0,_ZL10isplayableRKSt6vectorI9ActorInfoSaIS0_EE
FNDA:0,_ZN4Game9addCratesEP9GameFieldSt6vectorISt4pairIiiESaIS4_EES6_P8Drawable
FNDA:0,_ZN4Game8earlyOutEv
FNF:21
FNH:2
DA:22,0
DA:25,0
DA:36,0
DA:38,0
DA:39,0
DA:40,0
DA:49,0
DA:51,0
DA:52,0
DA:53,0
DA:66,0
DA:73,0
DA:74,0
DA:77,0
DA:91,0
DA:97,0
DA:98,0
DA:101,0
DA:115,0
DA:117,0
DA:120,0
DA:121,0
DA:124,0
DA:137,0
DA:144,0
DA:146,0
DA:147,0
DA:149,0
DA:151,0
DA:152,0
DA:154,0
DA:157,0
DA:158,0
DA:159,0
DA:161,0
DA:162,0
DA:163,0
DA:164,0
DA:165,0
DA:166,0
DA:167,0
DA:168,0
DA:169,0
DA:170,0
DA:171,0
DA:172,0
DA:173,0
DA:174,0
DA:176,0
DA:179,0
DA:180,0
DA:181,0
DA:184,0
DA:186,0
DA:187,0
DA:188,0
DA:190,0
DA:192,0
DA:193,0
DA:195,0
DA:197,0
DA:198,0
DA:201,0
DA:203,0
DA:204,0
DA:209,0
DA:210,0
DA:215,0
DA:216,0
DA:219,0
DA:220,0
DA:222,0
DA:224,0
DA:225,0
DA:229,0
DA:230,0
DA:232,0
DA:234,0
DA:235,0
DA:239,0
DA:240,0
DA:242,0
DA:244,0
DA:245,0
DA:249,0
DA:250,0
DA:252,0
DA:254,0
DA:255,0
DA:259,0
DA:260,0
DA:263,0
DA:265,0
DA:266,0
DA:267,0
DA:268,0
DA:270,0
DA:271,0
DA:274,0
DA:275,0
DA:276,0
DA:277,0
DA:278,0
DA:279,0
DA:281,0
DA:284,0
DA:286,0
DA:287,0
DA:289,0
DA:290,0
DA:291,0
DA:293,0
DA:294,0
DA:295,0
DA:300,0
DA:301,0
DA:302,0
DA:306,0
DA:309,0
DA:311,0
DA:312,0
DA:316,0
DA:317,0
DA:319,0
DA:321,0
DA:322,0
DA:326,0
DA:327,0
DA:329,0
DA:331,0
DA:332,0
DA:336,0
DA:337,0
DA:339,0
DA:341,0
DA:342,0
DA:346,0
DA:347,0
DA:349,0
DA:350,0
DA:351,0
DA:352,0
DA:354,0
DA:355,0
DA:357,0
DA:358,0
DA:359,0
DA:360,0
DA:361,0
DA:362,0
DA:368,0
DA:369,0
DA:370,0
DA:371,0
DA:374,0
DA:376,0
DA:377,0
DA:381,0
DA:382,0
DA:385,0
DA:387,0
DA:388,0
DA:389,0
DA:390,0
DA:392,0
DA:393,0
DA:395,0
DA:396,0
DA:397,0
DA:398,0
DA:399,0
DA:400,0
DA:405,0
DA:407,0
DA:409,0
DA:410,0
DA:413,0
DA:414,0
DA:424,0
DA:426,0
DA:429,0
DA:430,0
DA:431,0
DA:432,0
DA:435,0
DA:436,0
DA:437,0
DA:440,0
DA:443,0
DA:445,0
DA:447,0
DA:448,0
DA:449,0
DA:452,0
DA:453,0
DA:457,0
DA:458,0
DA:459,0
DA:461,0
DA:462,0
DA:463,0
DA:464,0
DA:466,0
DA:467,0
DA:470,0
DA:471,0
DA:475,0
DA:476,0
DA:477,0
DA:479,0
DA:492,0
DA:494,0
DA:495,0
DA:505,0
DA:507,0
DA:508,0
DA:510,0
DA:512,0
DA:515,0
DA:517,0
DA:518,0
DA:520,0
DA:522,0
DA:523,0
DA:524,0
DA:526,0
DA:529,0
DA:530,0
DA:533,0
DA:534,0
DA:536,0
DA:537,0
DA:540,0
DA:541,0
DA:543,0
DA:546,0
DA:549,0
DA:551,0
DA:552,0
DA:554,0
DA:556,0
DA:557,0
DA:559,0
DA:561,0
DA:563,0
DA:565,0
DA:567,0
DA:569,0
DA:570,0
DA:573,0
DA:575,0
DA:576,0
DA:579,0
DA:580,0
DA:581,0
DA:583,0
DA:585,0
DA:588,0
DA:590,0
DA:592,0
DA:593,0
DA:595,0
DA:596,0
DA:600,0
DA:602,0
DA:604,0
DA:605,0
DA:607,0
DA:609,0
DA:610,0
DA:612,0
DA:614,0
DA:615,0
DA:617,0
DA:619,0
DA:620,0
DA:622,0
DA:624,0
DA:625,0
DA:627,0
DA:630,0
DA:632,0
DA:633,0
DA:634,0
DA:641,0
DA:642,0
DA:643,0
DA:648,0
DA:649,0
DA:650,0
DA:654,0
DA:655,0
DA:660,0
DA:662,0
DA:664,0
DA:665,0
DA:667,0
DA:668,0
DA:670,0
DA:671,0
DA:674,0
DA:676,0
DA:678,0
DA:679,0
DA:681,0
DA:682,0
DA:685,0
DA:687,0
DA:689,0
DA:690,0
DA:692,0
DA:693,0
DA:696,0
DA:698,0
DA:700,0
DA:701,0
DA:703,0
DA:704,0
DA:708,0
DA:710,0
DA:711,0
DA:713,0
DA:718,0
DA:722,0
DA:728,0
DA:729,0
DA:731,0
DA:732,0
DA:734,0
DA:736,0
DA:738,0
DA:739,0
DA:741,0
DA:743,0
DA:745,0
DA:746,0
DA:747,0
DA:749,0
DA:750,0
DA:751,0
DA:752,0
DA:756,0
DA:757,0
DA:759,0
DA:760,0
DA:761,0
DA:762,0
DA:763,0
DA:764,0
DA:766,0
DA:769,0
DA:770,0
DA:771,0
DA:772,0
DA:773,0
DA:774,0
DA:777,0
DA:779,0
DA:780,0
DA:781,0
DA:782,0
DA:783,0
DA:785,0
DA:794,0
DA:796,0
DA:798,0
DA:799,0
DA:801,0
DA:803,0
DA:805,0
DA:806,0
DA:809,0
DA:811,0
DA:813,0
DA:815,0
DA:816,0
DA:825,0
DA:827,0
DA:828,0
DA:837,0
DA:839,0
DA:840,0
DA:843,0
DA:847,0
DA:848,0
DA:851,0
DA:852,0
DA:853,0
DA:854,0
DA:856,0
DA:858,0
DA:859,0
DA:860,0
DA:861,0
DA:864,0
DA:866,0
DA:869,0
DA:870,0
DA:872,0
DA:874,0
DA:875,0
DA:876,0
DA:878,0
DA:880,0
DA:881,0
DA:882,0
DA:883,0
DA:887,0
DA:889,0
DA:892,0
DA:894,0
DA:895,0
DA:896,0
DA:897,0
DA:899,0
DA:903,0
DA:906,0
DA:907,0
DA:909,0
DA:911,0
DA:912,0
DA:913,0
DA:915,0
DA:917,0
DA:918,0
DA:919,0
DA:920,0
DA:923,0
DA:927,0
DA:930,0
DA:932,0
DA:933,0
DA:934,0
DA:935,0
DA:937,0
DA:940,0
DA:943,0
DA:944,0
DA:946,0
DA:948,0
DA:949,0
DA:950,0
DA:952,0
DA:954,0
DA:955,0
DA:956,0
DA:957,0
DA:960,6
LF:448
LH:1
end_of_record
TN:
SF:/home/kbikeguy/soft_eng/tank-project/src/game.h
FN:65,_ZN4Game4getXEv
FN:69,_ZN4Game4getYEv
FN:74,_ZN4Game10getAISpeedEv
FN:78,_ZN4Game11getAniSpeedEv
FN:82,_ZN4Game15getbullet_speedEv
FN:86,_ZN4Game13gettank_speedEv
FNDA:0,_ZN4Game4getYEv
FNDA:0,_ZN4Game10getAISpeedEv
FNDA:0,_ZN4Game4getXEv
FNDA:0,_ZN4Game11getAniSpeedEv
FNDA:0,_ZN4Game15getbullet_speedEv
FNDA:0,_ZN4Game13gettank_speedEv
FNF:6
FNH:0
DA:65,0
DA:67,0
DA:69,0
DA:71,0
DA:74,0
DA:76,0
DA:78,0
DA:80,0
DA:82,0
DA:84,0
DA:86,0
DA:88,0
LF:12
LH:0
end_of_record
TN:
SF:/home/kbikeguy/soft_eng/tank-project/src/main.cpp
FN:54,main
FN:97,_Z41__static_initialization_and_destruction_0ii
FN:97,_GLOBAL__sub_I_main.cpp
FNDA:0,_Z41__static_initialization_and_destruction_0ii
FNDA:0,_GLOBAL__sub_I_main.cpp
FNDA:0,main
FNF:3
FNH:0
DA:54,0
DA:56,0
DA:57,0
DA:58,0
DA:60,0
DA:61,0
DA:62,0
DA:65,0
DA:68,0
DA:70,0
DA:71,0
DA:72,0
DA:75,0
DA:77,0
DA:78,0
DA:81,0
DA:83,0
DA:84,0
DA:86,0
DA:89,0
DA:92,0
DA:94,0
DA:96,0
DA:97,0
LF:24
LH:0
end_of_record
TN:
SF:/home/kbikeguy/soft_eng/tank-project/src/sfxDrawable.cpp
FN:20,_ZN11sfxDrawableC2Eff
FN:34,_ZN11sfxDrawable4drawEii
FN:60,_GLOBAL__sub_I_sfxDrawable.cpp
FN:60,_Z41__static_initialization_and_destruction_0ii
FNDA:0,_ZN11sfxDrawableC2Eff
FNDA:0,_ZN11sfxDrawable4drawEii
FNDA:2,_GLOBAL__sub_I_sfxDrawable.cpp
FNDA:2,_Z41__static_initialization_and_destruction_0ii
FNF:4
FNH:2
DA:20,0
DA:22,0
DA:23,0
DA:25,0
DA:26,0
DA:34,0
DA:36,0
DA:37,0
DA:38,0
DA:40,0
DA:41,0
DA:42,0
DA:43,0
DA:44,0
DA:45,0
DA:47,0
DA:48,0
DA:49,0
DA:50,0
DA:51,0
DA:52,0
DA:53,0
DA:54,0
DA:55,0
DA:56,0
DA:58,0
DA:59,0
DA:60,6
LF:28
LH:1
end_of_record
TN:
SF:/home/kbikeguy/soft_eng/tank-project/src/util.cpp
FN:14,_Z14utilityCentral8gameModeP5Event
FN:43,_Z10initOpenGLiPPcii8gameMode
FN:82,_Z41__static_initialization_and_destruction_0ii
FN:82,_GLOBAL__sub_I_util.cpp
FNDA:0,_Z14utilityCentral8gameModeP5Event
FNDA:2,_GLOBAL__sub_I_util.cpp
FNDA:2,_Z41__static_initialization_and_destruction_0ii
FNDA:0,_Z10initOpenGLiPPcii8gameMode
FNF:4
FNH:2
DA:14,0
DA:17,0
DA:19,0
DA:20,0
DA:22,0
DA:24,0
DA:26,0
DA:28,0
DA:29,0
DA:43,0
DA:45,0
DA:47,0
DA:49,0
DA:51,0
DA:53,0
DA:55,0
DA:57,0
DA:59,0
DA:61,0
DA:63,0
DA:65,0
DA:67,0
DA:69,0
DA:71,0
DA:73,0
DA:75,0
DA:77,0
DA:79,0
DA:81,0
DA:82,6
LF:30
LH:1
end_of_record
TN:
SF:/home/kbikeguy/soft_eng/tank-project/tests/functional_tests/movement_tests.cpp
FN:28,_ZL29____C_A_T_C_H____T_E_S_T____0v
FN:131,_ZL30____C_A_T_C_H____T_E_S_T____11v
FN:217,_ZL30____C_A_T_C_H____T_E_S_T____22v
FN:249,_GLOBAL__sub_I_movement_tests.cpp
FN:249,_Z41__static_initialization_and_destruction_0ii
FNDA:1,_GLOBAL__sub_I_movement_tests.cpp
FNDA:4,_ZL29____C_A_T_C_H____T_E_S_T____0v
FNDA:1,_ZL30____C_A_T_C_H____T_E_S_T____22v
FNDA:4,_ZL30____C_A_T_C_H____T_E_S_T____11v
FNDA:1,_Z41__static_initialization_and_destruction_0ii
FNF:5
FNH:5
DA:28,5
DA:30,8
DA:33,4
DA:34,4
DA:35,4
DA:36,4
DA:37,4
DA:38,4
DA:39,4
DA:40,4
DA:43,8
DA:46,8
DA:52,8
DA:54,8
DA:56,1
DA:57,1
DA:58,1
DA:60,2
DA:63,2
DA:65,2
DA:66,1
DA:70,8
DA:72,2
DA:74,2
DA:75,1
DA:76,1
DA:77,1
DA:79,2
DA:82,2
DA:84,2
DA:85,1
DA:89,8
DA:91,2
DA:93,2
DA:94,1
DA:95,1
DA:96,1
DA:97,2
DA:100,2
DA:102,2
DA:103,1
DA:107,8
DA:109,2
DA:111,2
DA:112,1
DA:113,1
DA:114,1
DA:115,2
DA:118,2
DA:120,2
DA:121,1
DA:125,4
DA:131,5
DA:133,8
DA:136,4
DA:137,4
DA:139,4
DA:140,4
DA:141,4
DA:142,4
DA:143,4
DA:144,4
DA:147,8
DA:150,8
DA:156,8
DA:158,8
DA:160,1
DA:161,1
DA:162,2
DA:164,2
DA:166,2
DA:167,1
DA:171,8
DA:173,1
DA:174,1
DA:175,2
DA:177,2
DA:179,2
DA:180,1
DA:184,8
DA:186,1
DA:187,1
DA:188,2
DA:190,2
DA:192,2
DA:193,1
DA:197,8
DA:199,1
DA:200,1
DA:201,2
DA:203,2
DA:205,2
DA:206,1
DA:211,4
DA:217,2
DA:219,2
DA:221,1
DA:222,1
DA:224,1
DA:225,1
DA:227,1
DA:228,1
DA:230,2
DA:231,2
DA:233,2
DA:235,2
DA:237,2
DA:239,1
DA:240,1
DA:241,1
DA:242,2
DA:244,1
DA:249,4
LF:113
LH:113
end_of_record
TN:
SF:/home/kbikeguy/soft_eng/tank-project/tests/functional_tests/projectile_functional_tests.cpp
FN:29,_ZL29____C_A_T_C_H____T_E_S_T____0v
FN:218,_ZL30____C_A_T_C_H____T_E_S_T____16v
FN:293,_Z41__static_initialization_and_destruction_0ii
FN:293,_GLOBAL__sub_I_projectile_functional_tests.cpp
FNDA:1,_Z41__static_initialization_and_destruction_0ii
FNDA:1,_GLOBAL__sub_I_projectile_functional_tests.cpp
FNDA:8,_ZL29____C_A_T_C_H____T_E_S_T____0v
FNDA:4,_ZL30____C_A_T_C_H____T_E_S_T____16v
FNF:4
FNH:4
DA:29,9
DA:31,16
DA:34,4
DA:35,4
DA:36,4
DA:39,8
DA:42,8
DA:59,8
DA:61,8
DA:63,2
DA:64,2
DA:65,2
DA:66,4
DA:72,2
DA:74,2
DA:75,1
DA:77,2
DA:78,2
DA:79,2
DA:80,4
DA:86,2
DA:88,2
DA:89,1
DA:94,8
DA:96,2
DA:97,2
DA:98,2
DA:100,4
DA:106,2
DA:108,2
DA:109,1
DA:112,2
DA:113,2
DA:114,2
DA:115,4
DA:121,2
DA:123,2
DA:124,1
DA:128,16
DA:131,4
DA:132,4
DA:133,4
DA:136,8
DA:139,8
DA:143,8
DA:145,8
DA:147,2
DA:148,2
DA:149,2
DA:150,4
DA:156,2
DA:158,2
DA:159,1
DA:161,2
DA:162,2
DA:163,2
DA:164,4
DA:170,2
DA:172,2
DA:173,1
DA:178,8
DA:180,2
DA:181,2
DA:182,2
DA:184,4
DA:190,2
DA:192,2
DA:193,1
DA:196,2
DA:197,2
DA:198,2
DA:199,4
DA:205,2
DA:207,2
DA:208,1
DA:212,8
DA:218,5
DA:221,4
DA:222,4
DA:223,4
DA:225,4
DA:226,4
DA:227,4
DA:230,8
DA:231,8
DA:234,8
DA:239,8
DA:240,8
DA:242,8
DA:244,2
DA:245,2
DA:246,2
DA:247,2
DA:248,2
DA:250,4
DA:253,2
DA:255,2
DA:256,1
DA:258,2
DA:259,2
DA:260,2
DA:261,2
DA:263,2
DA:265,4
DA:267,2
DA:268,2
DA:269,1
DA:273,8
DA:275,2
DA:276,2
DA:277,2
DA:278,2
DA:279,2
DA:280,2
DA:281,2
DA:282,2
DA:284,4
DA:286,2
DA:288,1
DA:293,6
LF:120
LH:120
end_of_record
TN:
SF:/home/kbikeguy/soft_eng/tank-project/tests/src/DynamicLoaderTests.cpp
FN:11,_ZL29____C_A_T_C_H____T_E_S_T____0v
FN:17,_ZL29____C_A_T_C_H____T_E_S_T____2v
FN:29,_ZL29____C_A_T_C_H____T_E_S_T____4v
FN:34,_GLOBAL__sub_I_DynamicLoaderTests.cpp
FN:34,_Z41__static_initialization_and_destruction_0ii
FNDA:1,_ZL29____C_A_T_C_H____T_E_S_T____0v
FNDA:1,_ZL29____C_A_T_C_H____T_E_S_T____4v
FNDA:1,_ZL29____C_A_T_C_H____T_E_S_T____2v
FNDA:1,_GLOBAL__sub_I_DynamicLoaderTests.cpp
FNDA:1,_Z41__static_initialization_and_destruction_0ii
FNF:5
FNH:5
DA:11,2
DA:13,2
DA:14,1
DA:15,1
DA:17,2
DA:19,2
DA:20,2
DA:21,1
DA:22,1
DA:29,2
DA:31,2
DA:32,2
DA:33,1
DA:34,4
LF:14
LH:14
end_of_record
TN:
SF:/home/kbikeguy/soft_eng/tank-project/tests/src/GameFeildTests.cpp
FN:7,_ZL29____C_A_T_C_H____T_E_S_T____0v
FN:13,_ZL29____C_A_T_C_H____T_E_S_T____2v
FN:19,_ZL29____C_A_T_C_H____T_E_S_T____4v
FN:26,_ZL29____C_A_T_C_H____T_E_S_T____6v
FN:36,_ZL29____C_A_T_C_H____T_E_S_T____8v
FN:42,_ZL30____C_A_T_C_H____T_E_S_T____10v
FN:63,_ZL30____C_A_T_C_H____T_E_S_T____12v
FN:78,_ZL30____C_A_T_C_H____T_E_S_T____14v
FN:84,_ZL30____C_A_T_C_H____T_E_S_T____16v
FN:91,_ZL30____C_A_T_C_H____T_E_S_T____18v
FN:102,_ZL30____C_A_T_C_H____T_E_S_T____20v
FN:120,_ZL30____C_A_T_C_H____T_E_S_T____22v
FN:129,_ZL30____C_A_T_C_H____T_E_S_T____24v
FN:141,_ZL30____C_A_T_C_H____T_E_S_T____26v
FN:151,_ZL30____C_A_T_C_H____T_E_S_T____28v
FN:168,_ZL30____C_A_T_C_H____T_E_S_T____30v
FN:180,_ZL30____C_A_T_C_H____T_E_S_T____32v
FN:192,_ZL30____C_A_T_C_H____T_E_S_T____34v
FN:204,_ZL30____C_A_T_C_H____T_E_S_T____36v
FN:229,_ZL30____C_A_T_C_H____T_E_S_T____38v
FN:256,_ZL30____C_A_T_C_H____T_E_S_T____40v
FN:266,_ZL30____C_A_T_C_H____T_E_S_T____42v
FN:284,_ZL30____C_A_T_C_H____T_E_S_T____44v
FN:289,_ZL30____C_A_T_C_H____T_E_S_T____46v
FN:299,_ZL30____C_A_T_C_H____T_E_S_T____48v
FN:314,_ZL30____C_A_T_C_H____T_E_S_T____50v
FN:325,_ZL30____C_A_T_C_H____T_E_S_T____52v
FN:334,_ZL30____C_A_T_C_H____T_E_S_T____54v
FN:346,_ZL30____C_A_T_C_H____T_E_S_T____56v
FN:357,_ZL30____C_A_T_C_H____T_E_S_T____58v
FN:374,_ZL30____C_A_T_C_H____T_E_S_T____60v
FN:384,_ZL30____C_A_T_C_H____T_E_S_T____62v
FN:394,_ZL30____C_A_T_C_H____T_E_S_T____64v
FN:409,_ZL30____C_A_T_C_H____T_E_S_T____66v
FN:419,_ZL30____C_A_T_C_H____T_E_S_T____68v
FN:434,_ZL30____C_A_T_C_H____T_E_S_T____70v
FN:445,_ZL30____C_A_T_C_H____T_E_S_T____72v
FN:462,_ZL30____C_A_T_C_H____T_E_S_T____74v
FN:486,_ZL30____C_A_T_C_H____T_E_S_T____76v
FN:500,_ZL30____C_A_T_C_H____T_E_S_T____78v
FN:528,_ZL30____C_A_T_C_H____T_E_S_T____80v
FN:571,_ZL30____C_A_T_C_H____T_E_S_T____82v
FN:598,_GLOBAL__sub_I_GameFeildTests.cpp
FN:598,_Z41__static_initialization_and_destruction_0ii
FNDA:1,_ZL30____C_A_T_C_H____T_E_S_T____28v
FNDA:1,_ZL30____C_A_T_C_H____T_E_S_T____68v
FNDA:1,_ZL30____C_A_T_C_H____T_E_S_T____30v
FNDA:1,_ZL30____C_A_T_C_H____T_E_S_T____38v
FNDA:1,_ZL30____C_A_T_C_H____T_E_S_T____82v
FNDA:1,_ZL29____C_A_T_C_H____T_E_S_T____8v
FNDA:1,_ZL30____C_A_T_C_H____T_E_S_T____78v
FNDA:1,_ZL30____C_A_T_C_H____T_E_S_T____70v
FNDA:1,_ZL29____C_A_T_C_H____T_E_S_T____4v
FNDA:1,_ZL30____C_A_T_C_H____T_E_S_T____20v
FNDA:1,_Z41__static_initialization_and_destruction_0ii
FNDA:1,_ZL30____C_A_T_C_H____T_E_S_T____42v
FNDA:1,_ZL29____C_A_T_C_H____T_E_S_T____6v
FNDA:1,_ZL30____C_A_T_C_H____T_E_S_T____44v
FNDA:1,_ZL30____C_A_T_C_H____T_E_S_T____80v
FNDA:1,_ZL30____C_A_T_C_H____T_E_S_T____18v
FNDA:1,_ZL30____C_A_T_C_H____T_E_S_T____26v
FNDA:1,_ZL30____C_A_T_C_H____T_E_S_T____66v
FNDA:1,_ZL30____C_A_T_C_H____T_E_S_T____64v
FNDA:1,_ZL30____C_A_T_C_H____T_E_S_T____54v
FNDA:1,_ZL30____C_A_T_C_H____T_E_S_T____50v
FNDA:1,_ZL30____C_A_T_C_H____T_E_S_T____36v
FNDA:1,_ZL30____C_A_T_C_H____T_E_S_T____12v
FNDA:1,_ZL29____C_A_T_C_H____T_E_S_T____0v
FNDA:1,_ZL30____C_A_T_C_H____T_E_S_T____74v
FNDA:1,_ZL30____C_A_T_C_H____T_E_S_T____76v
FNDA:1,_ZL30____C_A_T_C_H____T_E_S_T____60v
FNDA:1,_ZL30____C_A_T_C_H____T_E_S_T____62v
FNDA:1,_ZL30____C_A_T_C_H____T_E_S_T____40v
FNDA:1,_ZL30____C_A_T_C_H____T_E_S_T____72v
FNDA:1,_ZL30____C_A_T_C_H____T_E_S_T____24v
FNDA:1,_ZL30____C_A_T_C_H____T_E_S_T____10v
FNDA:1,_ZL30____C_A_T_C_H____T_E_S_T____14v
FNDA:1,_GLOBAL__sub_I_GameFeildTests.cpp
FNDA:1,_ZL30____C_A_T_C_H____T_E_S_T____48v
FNDA:1,_ZL30____C_A_T_C_H____T_E_S_T____16v
FNDA:1,_ZL30____C_A_T_C_H____T_E_S_T____22v
FNDA:1,_ZL30____C_A_T_C_H____T_E_S_T____52v
FNDA:1,_ZL30____C_A_T_C_H____T_E_S_T____32v
FNDA:1,_ZL30____C_A_T_C_H____T_E_S_T____34v
FNDA:1,_ZL30____C_A_T_C_H____T_E_S_T____56v
FNDA:1,_ZL30____C_A_T_C_H____T_E_S_T____58v
FNDA:1,_ZL30____C_A_T_C_H____T_E_S_T____46v
FNDA:1,_ZL29____C_A_T_C_H____T_E_S_T____2v
FNF:44
FNH:44
DA:7,2
DA:9,2
DA:10,1
DA:11,1
DA:13,2
DA:15,2
DA:16,1
DA:17,1
DA:19,2
DA:21,2
DA:22,1
DA:25,1
DA:26,2
DA:28,2
DA:29,1
DA:30,2
DA:31,1
DA:32,1
DA:34,1
DA:36,2
DA:38,2
DA:39,1
DA:40,1
DA:42,2
DA:44,2
DA:45,2
DA:46,2
DA:47,2
DA:51,1
DA:52,1
DA:53,1
DA:55,2
DA:57,1
DA:61,1
DA:63,2
DA:65,2
DA:66,2
DA:67,2
DA:68,2
DA:69,2
DA:70,1
DA:71,1
DA:72,1
DA:73,1
DA:74,1
DA:75,1
DA:76,1
DA:78,2
DA:80,2
DA:81,1
DA:82,1
DA:84,2
DA:86,2
DA:87,2
DA:88,1
DA:89,1
DA:91,2
DA:93,1
DA:94,1
DA:95,2
DA:96,1
DA:97,1
DA:98,2
DA:99,1
DA:100,1
DA:102,2
DA:104,2
DA:105,1
DA:106,1
DA:107,1
DA:108,1
DA:109,1
DA:110,1
DA:111,1
DA:112,1
DA:113,1
DA:114,1
DA:115,2
DA:116,2
DA:117,1
DA:118,1
DA:120,2
DA:122,1
DA:123,2
DA:124,2
DA:125,1
DA:126,2
DA:127,1
DA:128,1
DA:129,2
DA:131,1
DA:132,2
DA:133,2
DA:134,1
DA:135,1
DA:136,1
DA:137,2
DA:138,1
DA:139,1
DA:140,1
DA:141,2
DA:143,1
DA:144,2
DA:145,2
DA:146,1
DA:147,2
DA:148,1
DA:149,1
DA:150,1
DA:151,2
DA:153,1
DA:154,1
DA:155,2
DA:156,2
DA:157,2
DA:158,1
DA:159,1
DA:160,1
DA:161,1
DA:162,1
DA:163,1
DA:164,2
DA:165,1
DA:166,1
DA:167,1
DA:168,2
DA:170,1
DA:171,2
DA:172,2
DA:173,1
DA:174,2
DA:175,1
DA:176,1
DA:177,1
DA:178,1
DA:179,1
DA:180,2
DA:182,1
DA:183,2
DA:184,2
DA:185,1
DA:186,2
DA:187,1
DA:188,1
DA:189,1
DA:190,1
DA:191,1
DA:192,2
DA:194,1
DA:195,2
DA:196,2
DA:197,1
DA:198,1
DA:199,1
DA:200,1
DA:201,1
DA:202,1
DA:204,2
DA:206,1
DA:207,1
DA:208,1
DA:210,2
DA:211,2
DA:212,2
DA:214,2
DA:215,1
DA:216,1
DA:217,1
DA:219,2
DA:221,1
DA:223,2
DA:224,1
DA:226,1
DA:229,2
DA:231,1
DA:232,1
DA:233,1
DA:235,2
DA:236,2
DA:237,2
DA:239,2
DA:240,1
DA:241,1
DA:242,1
DA:244,2
DA:246,1
DA:248,2
DA:251,1
DA:253,1
DA:256,2
DA:258,1
DA:259,2
DA:260,2
DA:261,1
DA:262,1
DA:264,1
DA:265,1
DA:266,2
DA:268,1
DA:269,1
DA:271,2
DA:272,2
DA:274,2
DA:275,1
DA:276,1
DA:277,1
DA:278,1
DA:279,1
DA:281,1
DA:282,1
DA:284,2
DA:286,2
DA:287,1
DA:288,1
DA:289,2
DA:291,2
DA:292,1
DA:293,2
DA:295,1
DA:297,1
DA:298,1
DA:299,2
DA:301,2
DA:302,1
DA:303,2
DA:305,1
DA:307,1
DA:308,1
DA:310,1
DA:311,1
DA:314,2
DA:316,2
DA:318,1
DA:320,1
DA:322,1
DA:323,1
DA:325,2
DA:327,2
DA:329,1
DA:330,1
DA:332,1
DA:333,1
DA:334,2
DA:336,1
DA:337,2
DA:338,2
DA:339,1
DA:340,1
DA:341,1
DA:342,1
DA:343,1
DA:344,1
DA:345,1
DA:346,2
DA:348,1
DA:349,2
DA:350,2
DA:351,1
DA:352,1
DA:353,1
DA:354,1
DA:355,1
DA:356,1
DA:357,2
DA:359,1
DA:360,2
DA:361,2
DA:362,1
DA:363,1
DA:364,1
DA:365,1
DA:366,1
DA:367,2
DA:368,2
DA:369,1
DA:370,1
DA:371,1
DA:372,1
DA:373,1
DA:374,2
DA:376,1
DA:377,2
DA:378,2
DA:379,1
DA:380,1
DA:381,1
DA:382,1
DA:383,1
DA:384,2
DA:386,1
DA:387,2
DA:388,2
DA:389,1
DA:390,1
DA:391,1
DA:392,1
DA:393,1
DA:394,2
DA:396,1
DA:397,1
DA:398,2
DA:399,2
DA:400,2
DA:401,2
DA:402,1
DA:403,1
DA:404,1
DA:405,1
DA:406,1
DA:407,1
DA:408,1
DA:409,2
DA:411,1
DA:412,2
DA:413,2
DA:414,1
DA:415,1
DA:416,1
DA:417,1
DA:418,1
DA:419,2
DA:421,1
DA:422,1
DA:423,2
DA:424,2
DA:425,2
DA:426,2
DA:427,1
DA:428,1
DA:429,1
DA:430,1
DA:431,1
DA:432,1
DA:433,1
DA:434,2
DA:437,1
DA:438,2
DA:439,2
DA:440,1
DA:441,1
DA:442,1
DA:443,1
DA:444,1
DA:445,2
DA:448,1
DA:449,1
DA:451,2
DA:452,2
DA:453,2
DA:454,2
DA:455,1
DA:456,1
DA:457,1
DA:458,1
DA:459,1
DA:460,1
DA:461,1
DA:462,2
DA:464,1
DA:465,1
DA:466,1
DA:467,1
DA:468,1
DA:470,2
DA:471,2
DA:472,1
DA:473,2
DA:474,1
DA:475,1
DA:476,1
DA:477,1
DA:478,1
DA:479,1
DA:480,1
DA:481,1
DA:482,1
DA:483,1
DA:484,1
DA:485,1
DA:486,2
DA:488,1
DA:489,2
DA:491,2
DA:493,1
DA:495,1
DA:496,1
DA:497,1
DA:500,2
DA:502,1
DA:503,1
DA:505,2
DA:506,2
DA:507,2
DA:509,1
DA:511,2
DA:513,1
DA:515,1
DA:517,1
DA:518,1
DA:519,1
DA:520,1
DA:525,1
DA:528,2
DA:530,1
DA:531,2
DA:533,2
DA:534,1
DA:536,2
DA:545,2
DA:547,8
DA:549,7
DA:550,7
DA:552,6
DA:554,5
DA:555,5
DA:558,1
DA:560,2
DA:562,1
DA:565,1
DA:569,1
DA:571,2
DA:573,1
DA:574,1
DA:575,2
DA:576,2
DA:578,1
DA:580,2
DA:581,1
DA:582,1
DA:584,2
DA:586,2
DA:588,1
DA:590,50
DA:591,49
DA:592,0
DA:594,1
DA:598,4
LF:437
LH:436
end_of_record
TN:
SF:/home/kbikeguy/soft_eng/tank-project/tests/src/SimpleAITests.cpp
FN:7,_ZL29____C_A_T_C_H____T_E_S_T____0v
FN:12,_ZL29____C_A_T_C_H____T_E_S_T____2v
FN:21,_ZL29____C_A_T_C_H____T_E_S_T____4v
FN:31,_ZL29____C_A_T_C_H____T_E_S_T____6v
FN:41,_ZL29____C_A_T_C_H____T_E_S_T____8v
FN:50,_ZL30____C_A_T_C_H____T_E_S_T____10v
FN:60,_ZL30____C_A_T_C_H____T_E_S_T____12v
FN:70,_ZL30____C_A_T_C_H____T_E_S_T____14v
FN:80,_ZL30____C_A_T_C_H____T_E_S_T____16v
FN:91,_ZL30____C_A_T_C_H____T_E_S_T____18v
FN:101,_ZL30____C_A_T_C_H____T_E_S_T____20v
FN:112,_ZL30____C_A_T_C_H____T_E_S_T____22v
FN:123,_ZL30____C_A_T_C_H____T_E_S_T____24v
FN:134,_ZL30____C_A_T_C_H____T_E_S_T____26v
FN:145,_ZL30____C_A_T_C_H____T_E_S_T____28v
FN:158,_ZL30____C_A_T_C_H____T_E_S_T____30v
FN:178,_ZL30____C_A_T_C_H____T_E_S_T____32v
FN:198,_ZL30____C_A_T_C_H____T_E_S_T____34v
FN:217,_Z41__static_initialization_and_destruction_0ii
FN:217,_GLOBAL__sub_I_SimpleAITests.cpp
FNDA:1,_ZL30____C_A_T_C_H____T_E_S_T____34v
FNDA:1,_GLOBAL__sub_I_SimpleAITests.cpp
FNDA:1,_ZL29____C_A_T_C_H____T_E_S_T____2v
FNDA:1,_ZL30____C_A_T_C_H____T_E_S_T____16v
FNDA:1,_ZL30____C_A_T_C_H____T_E_S_T____22v
FNDA:1,_ZL30____C_A_T_C_H____T_E_S_T____32v
FNDA:1,_ZL30____C_A_T_C_H____T_E_S_T____18v
FNDA:1,_ZL30____C_A_T_C_H____T_E_S_T____26v
FNDA:1,_ZL29____C_A_T_C_H____T_E_S_T____8v
FNDA:1,_ZL29____C_A_T_C_H____T_E_S_T____4v
FNDA:1,_ZL30____C_A_T_C_H____T_E_S_T____24v
FNDA:1,_ZL30____C_A_T_C_H____T_E_S_T____10v
FNDA:1,_ZL30____C_A_T_C_H____T_E_S_T____20v
FNDA:1,_Z41__static_initialization_and_destruction_0ii
FNDA:1,_ZL30____C_A_T_C_H____T_E_S_T____14v
FNDA:1,_ZL29____C_A_T_C_H____T_E_S_T____6v
FNDA:1,_ZL30____C_A_T_C_H____T_E_S_T____28v
FNDA:1,_ZL30____C_A_T_C_H____T_E_S_T____12v
FNDA:1,_ZL30____C_A_T_C_H____T_E_S_T____30v
FNDA:1,_ZL29____C_A_T_C_H____T_E_S_T____0v
FNF:20
FNH:20
DA:7,2
DA:9,2
DA:10,1
DA:11,1
DA:12,2
DA:14,2
DA:15,2
DA:16,2
DA:17,1
DA:19,1
DA:20,1
DA:21,2
DA:23,2
DA:24,2
DA:25,2
DA:26,1
DA:27,1
DA:29,1
DA:30,1
DA:31,2
DA:33,2
DA:34,2
DA:35,2
DA:36,1
DA:37,1
DA:39,1
DA:40,1
DA:41,2
DA:43,2
DA:44,2
DA:45,2
DA:46,1
DA:48,1
DA:49,1
DA:50,2
DA:52,2
DA:53,2
DA:54,2
DA:55,1
DA:56,1
DA:58,1
DA:59,1
DA:60,2
DA:62,2
DA:63,2
DA:64,2
DA:65,1
DA:66,1
DA:68,1
DA:69,1
DA:70,2
DA:72,2
DA:73,2
DA:74,2
DA:75,1
DA:76,1
DA:77,1
DA:78,1
DA:79,1
DA:80,2
DA:82,2
DA:83,2
DA:84,2
DA:85,1
DA:86,1
DA:87,1
DA:88,1
DA:89,1
DA:91,2
DA:93,2
DA:94,2
DA:95,2
DA:96,1
DA:97,1
DA:98,1
DA:99,1
DA:100,1
DA:101,2
DA:103,2
DA:104,2
DA:105,2
DA:106,1
DA:107,1
DA:108,1
DA:109,1
DA:110,1
DA:112,2
DA:114,2
DA:115,2
DA:116,2
DA:117,1
DA:118,1
DA:119,1
DA:120,1
DA:121,1
DA:123,2
DA:125,2
DA:126,2
DA:127,2
DA:128,1
DA:129,1
DA:130,1
DA:131,1
DA:132,1
DA:134,2
DA:136,2
DA:137,2
DA:138,2
DA:139,1
DA:140,1
DA:141,1
DA:142,1
DA:143,1
DA:145,2
DA:147,2
DA:148,2
DA:149,2
DA:150,1
DA:151,1
DA:152,1
DA:153,1
DA:154,1
DA:158,2
DA:160,2
DA:162,2
DA:167,2
DA:169,1
DA:170,1
DA:172,1
DA:174,1
DA:176,0
DA:178,2
DA:180,2
DA:182,2
DA:187,2
DA:189,1
DA:190,1
DA:192,1
DA:194,1
DA:196,0
DA:198,2
DA:200,2
DA:202,2
DA:208,2
DA:210,1
DA:211,1
DA:213,1
DA:215,1
DA:217,3
LF:149
LH:147
end_of_record
TN:
SF:/home/kbikeguy/soft_eng/tank-project/tests/src/SimpleActorTests.cpp
FN:6,_ZL29____C_A_T_C_H____T_E_S_T____0v
FN:11,_ZL29____C_A_T_C_H____T_E_S_T____2v
FN:19,_ZL29____C_A_T_C_H____T_E_S_T____4v
FN:29,_ZL29____C_A_T_C_H____T_E_S_T____6v
FN:37,_ZL29____C_A_T_C_H____T_E_S_T____8v
FN:48,_ZL30____C_A_T_C_H____T_E_S_T____10v
FN:56,_Z41__static_initialization_and_destruction_0ii
FN:56,_GLOBAL__sub_I_SimpleActorTests.cpp
FNDA:1,_Z41__static_initialization_and_destruction_0ii
FNDA:1,_ZL29____C_A_T_C_H____T_E_S_T____6v
FNDA:1,_ZL29____C_A_T_C_H____T_E_S_T____2v
FNDA:1,_ZL29____C_A_T_C_H____T_E_S_T____8v
FNDA:1,_ZL30____C_A_T_C_H____T_E_S_T____10v
FNDA:1,_ZL29____C_A_T_C_H____T_E_S_T____4v
FNDA:1,_GLOBAL__sub_I_SimpleActorTests.cpp
FNDA:1,_ZL29____C_A_T_C_H____T_E_S_T____0v
FNF:8
FNH:8
DA:6,2
DA:8,2
DA:9,1
DA:10,1
DA:11,2
DA:13,1
DA:14,2
DA:15,2
DA:16,1
DA:17,1
DA:18,1
DA:19,2
DA:21,1
DA:22,2
DA:23,2
DA:25,1
DA:26,1
DA:27,1
DA:28,1
DA:29,2
DA:31,1
DA:32,2
DA:33,2
DA:34,1
DA:35,1
DA:36,1
DA:37,2
DA:39,1
DA:40,2
DA:41,2
DA:43,1
DA:44,1
DA:45,1
DA:46,1
DA:47,1
DA:48,2
DA:50,1
DA:51,2
DA:52,2
DA:53,1
DA:54,1
DA:55,1
DA:56,4
LF:43
LH:43
end_of_record
TN:
SF:/home/kbikeguy/soft_eng/tank-project/tests/src/catch.hpp
FN:305,_ZN5Catch11NonCopyableC2Ev
FN:305,_ZN5Catch11NonCopyableD2Ev
FN:305,_ZN5Catch11NonCopyableD0Ev
FN:319,_ZN5Catch14SourceLineInfoC2EPKcm
FN:381,_ZN5Catch12ITestInvokerC2Ev
FN:381,_ZN5Catch12ITestInvokerD2Ev
FN:381,_ZN5Catch12ITestInvokerD0Ev
FN:391,_ZN5Catch17ITestCaseRegistryD2Ev
FN:391,_ZN5Catch17ITestCaseRegistryD0Ev
FN:391,_ZN5Catch17ITestCaseRegistryC2Ev
FN:438,_ZN5Catch9StringRefC2Ev
FN:442,_ZN5Catch9StringRefC2ERKS0_
FN:457,_ZN5Catch9StringRefC2EPKcm
FN:462,_ZN5Catch9StringRefC2ERKNSt7__cxx1112basic_stringIcSt11char_traitsIcESaIcEEE
FN:467,_ZN5Catch9StringRefD2Ev
FN:471,_ZN5Catch9StringRefaSERKS0_
FN:490,_ZNK5Catch9StringRef5emptyEv
FN:493,_ZNK5Catch9StringRef4sizeEv
FN:519,_ZN5Catchli3_srEPKcm
FN:547,_ZN5Catch11NameAndTagsD2Ev
FN:553,_ZN5Catch7AutoRegD0Ev
FN:553,_ZN5Catch7AutoRegD2Ev
FN:661,_ZN5Catch11isFalseTestEi
FN:669,_ZN5Catch13AssertionInfoaSEOS0_
FN:669,_ZN5Catch13AssertionInfoD2Ev
FN:669,_ZN5Catch13AssertionInfoC2ERKS0_
FN:669,_ZN5Catch13AssertionInfoaSERKS0_
FN:706,_ZN5Catch7IStreamD0Ev
FN:706,_ZN5Catch7IStreamC2Ev
FN:706,_ZN5Catch7IStreamD2Ev
FN:723,_ZN5Catch20ReusableStringStreamlsIjEERS0_RKT_
FN:723,_ZN5Catch20ReusableStringStreamlsIA25_cEERS0_RKT_
FN:723,_ZN5Catch20ReusableStringStreamlsIA4_cEERS0_RKT_
FN:723,_ZN5Catch20ReusableStringStreamlsISt8_SetfillIcEEERS0_RKT_
FN:723,_ZN5Catch20ReusableStringStreamlsIA28_cEERS0_RKT_
FN:723,_ZN5Catch20ReusableStringStreamlsIA3_cEERS0_RKT_
FN:723,_ZN5Catch20ReusableStringStreamlsINSt7__cxx1112basic_stringIcSt11char_traitsIcESaIcEEEEERS0_RKT_
FN:723,_ZN5Catch20ReusableStringStreamlsIA31_cEERS0_RKT_
FN:723,_ZN5Catch20ReusableStringStreamlsINS_14LazyExpressionEEERS0_RKT_
FN:723,_ZN5Catch20ReusableStringStreamlsIA20_cEERS0_RKT_
FN:723,_ZN5Catch20ReusableStringStreamlsIA5_cEERS0_RKT_
FN:723,_ZN5Catch20ReusableStringStreamlsIA19_cEERS0_RKT_
FN:723,_ZN5Catch20ReusableStringStreamlsIA45_cEERS0_RKT_
FN:723,_ZN5Catch20ReusableStringStreamlsIA22_cEERS0_RKT_
FN:723,_ZN5Catch20ReusableStringStreamlsIPKcEERS0_RKT_
FN:723,_ZN5Catch20ReusableStringStreamlsIA16_cEERS0_RKT_
FN:723,_ZN5Catch20ReusableStringStreamlsIA23_cEERS0_RKT_
FN:723,_ZN5Catch20ReusableStringStreamlsIA32_cEERS0_RKT_
FN:723,_ZN5Catch20ReusableStringStreamlsIA36_cEERS0_RKT_
FN:723,_ZN5Catch20ReusableStringStreamlsIA37_cEERS0_RKT_
FN:723,_ZN5Catch20ReusableStringStreamlsIA30_cEERS0_RKT_
FN:723,_ZN5Catch20ReusableStringStreamlsIA18_cEERS0_RKT_
FN:723,_ZN5Catch20ReusableStringStreamlsIA49_cEERS0_RKT_
FN:723,_ZN5Catch20ReusableStringStreamlsIfEERS0_RKT_
FN:723,_ZN5Catch20ReusableStringStreamlsI9directionEERS0_RKT_
FN:723,_ZN5Catch20ReusableStringStreamlsIFRSt8ios_baseS3_EEERS0_RKT_
FN:723,_ZN5Catch20ReusableStringStreamlsIA2_cEERS0_RKT_
FN:723,_ZN5Catch20ReusableStringStreamlsIcEERS0_RKT_
FN:723,_ZN5Catch20ReusableStringStreamlsIA34_cEERS0_RKT_
FN:723,_ZN5Catch20ReusableStringStreamlsIA9_cEERS0_RKT_
FN:723,_ZN5Catch20ReusableStringStreamlsIA13_cEERS0_RKT_
FN:723,_ZN5Catch20ReusableStringStreamlsIA27_cEERS0_RKT_
FN:723,_ZN5Catch20ReusableStringStreamlsIA12_cEERS0_RKT_
FN:723,_ZN5Catch20ReusableStringStreamlsIA29_cEERS0_RKT_
FN:723,_ZN5Catch20ReusableStringStreamlsINS_14SourceLineInfoEEERS0_RKT_
FN:723,_ZN5Catch20ReusableStringStreamlsIA1_cEERS0_RKT_
FN:723,_ZN5Catch20ReusableStringStreamlsIxEERS0_RKT_
FN:723,_ZN5Catch20ReusableStringStreamlsINS_16TestCaseTracking11TrackerBase10CycleStateEEERS0_RKT_
FN:723,_ZN5Catch20ReusableStringStreamlsImEERS0_RKT_
FN:723,_ZN5Catch20ReusableStringStreamlsINS_9StringRefEEERS0_RKT_
FN:723,_ZN5Catch20ReusableStringStreamlsIA47_cEERS0_RKT_
FN:723,_ZN5Catch20ReusableStringStreamlsISt13_SetprecisionEERS0_RKT_
FN:723,_ZN5Catch20ReusableStringStreamlsIA11_cEERS0_RKT_
FN:723,_ZN5Catch20ReusableStringStreamlsISt5_SetwEERS0_RKT_
FN:723,_ZN5Catch20ReusableStringStreamlsIyEERS0_RKT_
FN:723,_ZN5Catch20ReusableStringStreamlsIA26_cEERS0_RKT_
FN:723,_ZN5Catch20ReusableStringStreamlsIA21_cEERS0_RKT_
FN:723,_ZN5Catch20ReusableStringStreamlsIdEERS0_RKT_
FN:723,_ZN5Catch20ReusableStringStreamlsIA17_cEERS0_RKT_
FN:723,_ZN5Catch20ReusableStringStreamlsIA38_cEERS0_RKT_
FN:723,_ZN5Catch20ReusableStringStreamlsIA64_cEERS0_RKT_
FN:723,_ZN5Catch20ReusableStringStreamlsIA53_cEERS0_RKT_
FN:723,_ZN5Catch20ReusableStringStreamlsIA15_cEERS0_RKT_
FN:723,_ZN5Catch20ReusableStringStreamlsIA67_cEERS0_RKT_
FN:727,_ZN5Catch20ReusableStringStream3getEv
FN:801,_ZN5Catch6Detail17rawMemoryToStringIP11SimpleActorEENSt7__cxx1112basic_stringIcSt11char_traitsIcESaIcEEERKT_
FN:801,_ZN5Catch6Detail17rawMemoryToStringIP5ActorEENSt7__cxx1112basic_stringIcSt11char_traitsIcESaIcEEERKT_
FN:824,_ZN5Catch6Detail19convertUnstreamableI9ActorInfoEENSt9enable_ifIXaantsrSt7is_enumIT_E5valuentsrSt10is_base_ofISt9exceptionS5_E5valueENSt7__cxx1112basic_stringIcSt11char_traitsIcESaIcEEEE4typeERKS5_
FN:861,_ZN5Catch11StringMakerI9directionvE7convertIS1_EENSt9enable_ifIXsrNS_6Detail18IsStreamInsertableIT_EE5valueENSt7__cxx1112basic_stringIcSt11char_traitsIcESaIcEEEE4typeERKS7_
FN:861,_ZN5Catch11StringMakerINS_14SourceLineInfoEvE7convertIS1_EENSt9enable_ifIXsrNS_6Detail18IsStreamInsertableIT_EE5valueENSt7__cxx1112basic_stringIcSt11char_traitsIcESaIcEEEE4typeERKS7_
FN:872,_ZN5Catch11StringMakerI9ActorInfovE7convertIS1_EENSt9enable_ifIXntsrNS_6Detail18IsStreamInsertableIT_EE5valueENSt7__cxx1112basic_stringIcSt11char_traitsIcESaIcEEEE4typeERKS7_
FN:886,_ZN5Catch6Detail9stringifyIyEENSt7__cxx1112basic_stringIcSt11char_traitsIcESaIcEEERKT_
FN:886,_ZN5Catch6Detail9stringifyImEENSt7__cxx1112basic_stringIcSt11char_traitsIcESaIcEEERKT_
FN:886,_ZN5Catch6Detail9stringifyINS_14SourceLineInfoEEENSt7__cxx1112basic_stringIcSt11char_traitsIcESaIcEEERKT_
FN:886,_ZN5Catch6Detail9stringifyIjEENSt7__cxx1112basic_stringIcSt11char_traitsIcESaIcEEERKT_
FN:886,_ZN5Catch6Detail9stringifyI9ActorInfoEENSt7__cxx1112basic_stringIcSt11char_traitsIcESaIcEEERKT_
FN:886,_ZN5Catch6Detail9stringifyIcEENSt7__cxx1112basic_stringIcSt11char_traitsIcESaIcEEERKT_
FN:886,_ZN5Catch6Detail9stringifyIP11SimpleActorEENSt7__cxx1112basic_stringIcSt11char_traitsIcESaIcEEERKT_
FN:886,_ZN5Catch6Detail9stringifyIbEENSt7__cxx1112basic_stringIcSt11char_traitsIcESaIcEEERKT_
FN:886,_ZN5Catch6Detail9stringifyISt6vectorIiSaIiEEEENSt7__cxx1112basic_stringIcSt11char_traitsIcESaIcEEERKT_
FN:886,_ZN5Catch6Detail9stringifyINSt7__cxx1112basic_stringIcSt11char_traitsIcESaIcEEEEES7_RKT_
FN:886,_ZN5Catch6Detail9stringifyIxEENSt7__cxx1112basic_stringIcSt11char_traitsIcESaIcEEERKT_
FN:886,_ZN5Catch6Detail9stringifyIiEENSt7__cxx1112basic_stringIcSt11char_traitsIcESaIcEEERKT_
FN:886,_ZN5Catch6Detail9stringifyIDnEENSt7__cxx1112basic_stringIcSt11char_traitsIcESaIcEEERKT_
FN:886,_ZN5Catch6Detail9stringifyINSt7__cxx1112basic_stringIwSt11char_traitsIwESaIwEEEEENS3_IcS4_IcESaIcEEERKT_
FN:886,_ZN5Catch6Detail9stringifyIdEENSt7__cxx1112basic_stringIcSt11char_traitsIcESaIcEEERKT_
FN:886,_ZN5Catch6Detail9stringifyIP5ActorEENSt7__cxx1112basic_stringIcSt11char_traitsIcESaIcEEERKT_
FN:886,_ZN5Catch6Detail9stringifyI9directionEENSt7__cxx1112basic_stringIcSt11char_traitsIcESaIcEEERKT_
FN:1018,_ZN5Catch11StringMakerIP11SimpleActorvE7convertIS1_EENSt7__cxx1112basic_stringIcSt11char_traitsIcESaIcEEEPT_
FN:1018,_ZN5Catch11StringMakerIP5ActorvE7convertIS1_EENSt7__cxx1112basic_stringIcSt11char_traitsIcESaIcEEEPT_
FN:1049,_ZN5Catch6Detail13rangeToStringIN9__gnu_cxx17__normal_iteratorIPKiSt6vectorIiSaIiEEEEEENSt7__cxx1112basic_stringIcSt11char_traitsIcESaIcEEET_SG_
FN:1183,_ZN5Catch13rangeToStringISt6vectorIiSaIiEEEENSt7__cxx1112basic_stringIcSt11char_traitsIcESaIcEEERKT_
FN:1206,_ZN5Catch11StringMakerISt6vectorIiSaIiEEvE7convertB5cxx11ERKS3_
FN:1354,_ZN5Catch20ITransientExpressionD2Ev
FN:1354,_ZN5Catch20ITransientExpressionD0Ev
FN:1355,_ZNK5Catch20ITransientExpression18isBinaryExpressionEv
FN:1356,_ZNK5Catch20ITransientExpression9getResultEv
FN:1359,_ZN5Catch20ITransientExpressionC2Ebb
FN:1376,_ZN5Catch10BinaryExprIRK9directionS3_ED0Ev
FN:1376,_ZN5Catch10BinaryExprIRKibED0Ev
FN:1376,_ZN5Catch10BinaryExprIRKSt6vectorIiSaIiEES5_ED2Ev
FN:1376,_ZN5Catch10BinaryExprIRKP11SimpleActorRKDnED0Ev
FN:1376,_ZN5Catch10BinaryExprIRKP5ActorRKP11SimpleActorED2Ev
FN:1376,_ZN5Catch10BinaryExprIRK9ActorInfoS3_ED2Ev
FN:1376,_ZN5Catch10BinaryExprIRK9ActorInfoS3_ED0Ev
FN:1376,_ZN5Catch10BinaryExprIbbED2Ev
FN:1376,_ZN5Catch10BinaryExprIbbED0Ev
FN:1376,_ZN5Catch10BinaryExprIRKmRKiED0Ev
FN:1376,_ZN5Catch10BinaryExprIRKiS2_ED0Ev
FN:1376,_ZN5Catch10BinaryExprIRKibED2Ev
FN:1376,_ZN5Catch10BinaryExprIRKP11SimpleActorRKDnED2Ev
FN:1376,_ZN5Catch10BinaryExprIRK9directionS3_ED2Ev
FN:1376,_ZN5Catch10BinaryExprIRKSt6vectorIiSaIiEES5_ED0Ev
FN:1376,_ZN5Catch10BinaryExprIRKP5ActorRKP11SimpleActorED0Ev
FN:1376,_ZN5Catch10BinaryExprIRKmRKiED2Ev
FN:1376,_ZN5Catch10BinaryExprIRKiS2_ED2Ev
FN:1381,_ZNK5Catch10BinaryExprIRKP11SimpleActorRKDnE29streamReconstructedExpressionERSo
FN:1381,_ZNK5Catch10BinaryExprIRKSt6vectorIiSaIiEES5_E29streamReconstructedExpressionERSo
FN:1381,_ZNK5Catch10BinaryExprIRKP5ActorRKP11SimpleActorE29streamReconstructedExpressionERSo
FN:1381,_ZNK5Catch10BinaryExprIRKiS2_E29streamReconstructedExpressionERSo
FN:1381,_ZNK5Catch10BinaryExprIRK9ActorInfoS3_E29streamReconstructedExpressionERSo
FN:1381,_ZNK5Catch10BinaryExprIRK9directionS3_E29streamReconstructedExpressionERSo
FN:1381,_ZNK5Catch10BinaryExprIRKibE29streamReconstructedExpressionERSo
FN:1381,_ZNK5Catch10BinaryExprIbbE29streamReconstructedExpressionERSo
FN:1381,_ZNK5Catch10BinaryExprIRKmRKiE29streamReconstructedExpressionERSo
FN:1387,_ZN5Catch10BinaryExprIRKP11SimpleActorRKDnEC2EbS4_NS_9StringRefES6_
FN:1387,_ZN5Catch10BinaryExprIRK9directionS3_EC2EbS3_NS_9StringRefES3_
FN:1387,_ZN5Catch10BinaryExprIRKSt6vectorIiSaIiEES5_EC2EbS5_NS_9StringRefES5_
FN:1387,_ZN5Catch10BinaryExprIRKiS2_EC2EbS2_NS_9StringRefES2_
FN:1387,_ZN5Catch10BinaryExprIRKibEC2EbS2_NS_9StringRefEb
FN:1387,_ZN5Catch10BinaryExprIbbEC2EbbNS_9StringRefEb
FN:1387,_ZN5Catch10BinaryExprIRK9ActorInfoS3_EC2EbS3_NS_9StringRefES3_
FN:1387,_ZN5Catch10BinaryExprIRKmRKiEC2EbS2_NS_9StringRefES4_
FN:1387,_ZN5Catch10BinaryExprIRKP5ActorRKP11SimpleActorEC2EbS4_NS_9StringRefES8_
FN:1396,_ZN5Catch9UnaryExprIbED2Ev
FN:1396,_ZN5Catch9UnaryExprIbED0Ev
FN:1399,_ZNK5Catch9UnaryExprIbE29streamReconstructedExpressionERSo
FN:1404,_ZN5Catch9UnaryExprIbEC2Eb
FN:1412,_ZN5Catch12compareEqualIiiEEbRKT_RKT0_
FN:1412,_ZN5Catch12compareEqualImiEEbRKT_RKT0_
FN:1412,_ZN5Catch12compareEqualISt6vectorIiSaIiEES3_EEbRKT_RKT0_
FN:1412,_ZN5Catch12compareEqualI9ActorInfoS1_EEbRKT_RKT0_
FN:1412,_ZN5Catch12compareEqualIP5ActorP11SimpleActorEEbRKT_RKT0_
FN:1412,_ZN5Catch12compareEqualI9directionS1_EEbRKT_RKT0_
FN:1423,_ZN5Catch15compareNotEqualIP11SimpleActorRKDnEEbRKT_OT0_
FN:1423,_ZN5Catch15compareNotEqualI9directionRKS1_EEbRKT_OT0_
FN:1437,_ZN5Catch7ExprLhsIRKiEC2ES2_
FN:1437,_ZN5Catch7ExprLhsIbEC2Eb
FN:1437,_ZN5Catch7ExprLhsIRK9ActorInfoEC2ES3_
FN:1437,_ZN5Catch7ExprLhsIRK9directionEC2ES3_
FN:1437,_ZN5Catch7ExprLhsIRKmEC2ES2_
FN:1437,_ZN5Catch7ExprLhsIRKSt6vectorIiSaIiEEEC2ES5_
FN:1437,_ZN5Catch7ExprLhsIRKP11SimpleActorEC2ES4_
FN:1437,_ZN5Catch7ExprLhsIRKP5ActorEC2ES4_
FN:1440,_ZN5Catch7ExprLhsIRKP5ActorEeqIP11SimpleActorEEKNS_10BinaryExprIS4_RKT_EESC_
FN:1440,_ZN5Catch7ExprLhsIRKSt6vectorIiSaIiEEEeqIS3_EEKNS_10BinaryExprIS5_RKT_EESB_
FN:1440,_ZN5Catch7ExprLhsIRK9ActorInfoEeqIS1_EEKNS_10BinaryExprIS3_RKT_EES9_
FN:1440,_ZN5Catch7ExprLhsIRK9directionEeqIS1_EEKNS_10BinaryExprIS3_RKT_EES9_
FN:1440,_ZN5Catch7ExprLhsIRKiEeqIiEEKNS_10BinaryExprIS2_RKT_EES8_
FN:1440,_ZN5Catch7ExprLhsIRKmEeqIiEEKNS_10BinaryExprIS2_RKT_EES8_
FN:1443,_ZN5Catch7ExprLhsIbEeqEb
FN:1443,_ZN5Catch7ExprLhsIRKiEeqEb
FN:1448,_ZN5Catch7ExprLhsIRK9directionEneIS1_EEKNS_10BinaryExprIS3_RKT_EES9_
FN:1448,_ZN5Catch7ExprLhsIRKP11SimpleActorEneIDnEEKNS_10BinaryExprIS4_RKT_EESA_
FN:1456,_ZN5Catch7ExprLhsIRKmEgtIiEEKNS_10BinaryExprIS2_RKT_EES8_
FN:1464,_ZN5Catch7ExprLhsIRKiEgeIiEEKNS_10BinaryExprIS2_RKT_EES8_
FN:1472,_ZNK5Catch7ExprLhsIbE13makeUnaryExprEv
FN:1486,_ZN5Catch10DecomposerleImEENS_7ExprLhsIRKT_EES5_
FN:1486,_ZN5Catch10DecomposerleIiEENS_7ExprLhsIRKT_EES5_
FN:1486,_ZN5Catch10DecomposerleI9ActorInfoEENS_7ExprLhsIRKT_EES6_
FN:1486,_ZN5Catch10DecomposerleI9directionEENS_7ExprLhsIRKT_EES6_
FN:1486,_ZN5Catch10DecomposerleIP5ActorEENS_7ExprLhsIRKT_EES7_
FN:1486,_ZN5Catch10DecomposerleIP11SimpleActorEENS_7ExprLhsIRKT_EES7_
FN:1486,_ZN5Catch10DecomposerleISt6vectorIiSaIiEEEENS_7ExprLhsIRKT_EES8_
FN:1490,_ZN5Catch10DecomposerleEb
FN:1520,_ZN5Catch14IResultCaptureD0Ev
FN:1520,_ZN5Catch14IResultCaptureD2Ev
FN:1520,_ZN5Catch14IResultCaptureC2Ev
FN:1597,_ZN5Catch17AssertionReactionC2Ev
FN:1614,_ZN5Catch16AssertionHandlerD2Ev
FN:1621,_ZN5Catch16AssertionHandler10handleExprIbEEvRKNS_7ExprLhsIT_EE
FN:1652,_ZN5Catch11MessageInfoC2EOS0_
FN:1652,_ZN5Catch11MessageInfoD2Ev
FN:1652,_ZN5Catch11MessageInfoC2ERKS0_
FN:1652,_ZN5Catch11MessageInfoaSEOS0_
FN:1669,_ZN5Catch13MessageStreamC2Ev
FN:1669,_ZN5Catch13MessageStreamD2Ev
FN:1680,_ZN5Catch14MessageBuilderD2Ev
FN:1686,_ZN5Catch14MessageBuilderlsINSt7__cxx1112basic_stringIcSt11char_traitsIcESaIcEEEEERS0_RKT_
FN:1847,_ZN5Catch6CountsC2Ev
FN:1860,_ZN5Catch6TotalsC2Ev
FN:1878,_ZN5Catch11SectionInfoaSERKS0_
FN:1878,_ZN5Catch11SectionInfoC2ERKS0_
FN:1878,_ZN5Catch11SectionInfoD2Ev
FN:1878,_ZN5Catch11SectionInfoC2EOS0_
FN:1894,_ZN5Catch14SectionEndInfoC2EOS0_
FN:1894,_ZN5Catch14SectionEndInfoC2ERKS0_
FN:1894,_ZN5Catch14SectionEndInfoD2Ev
FN:1912,_ZN5Catch5TimerC2Ev
FN:2025,_ZN5Catch12IRegistryHubC2Ev
FN:2025,_ZN5Catch12IRegistryHubD2Ev
FN:2025,_ZN5Catch12IRegistryHubD0Ev
FN:2037,_ZN5Catch19IMutableRegistryHubD0Ev
FN:2037,_ZN5Catch19IMutableRegistryHubC2Ev
FN:2037,_ZN5Catch19IMutableRegistryHubD2Ev
FN:2070,_ZN5Catch20IExceptionTranslatorD0Ev
FN:2070,_ZN5Catch20IExceptionTranslatorD2Ev
FN:2075,_ZN5Catch28IExceptionTranslatorRegistryC2Ev
FN:2075,_ZN5Catch28IExceptionTranslatorRegistryD0Ev
FN:2075,_ZN5Catch28IExceptionTranslatorRegistryD2Ev
FN:2155,_ZN5Catch6Detail6ApproxC2IivEERKT_
FN:2155,_ZN5Catch6Detail6ApproxC2IevEERKT_
FN:2155,_ZN5Catch6Detail6ApproxC2IyvEERKT_
FN:2272,_ZN5Catch9pluraliseD2Ev
FN:2299,_ZN5Catch8Matchers4Impl18MatcherUntypedBaseD2Ev
FN:2299,_ZN5Catch8Matchers4Impl18MatcherUntypedBaseD0Ev
FN:2301,_ZN5Catch8Matchers4Impl18MatcherUntypedBaseC2Ev
FN:2313,_ZN5Catch8Matchers4Impl13MatcherMethodINSt7__cxx1112basic_stringIcSt11char_traitsIcESaIcEEEEC2Ev
FN:2313,_ZN5Catch8Matchers4Impl13MatcherMethodIdEC2Ev
FN:2322,_ZN5Catch8Matchers4Impl11MatcherBaseIdED0Ev
FN:2322,_ZN5Catch8Matchers4Impl11MatcherBaseINSt7__cxx1112basic_stringIcSt11char_traitsIcESaIcEEEEC2Ev
FN:2322,_ZN5Catch8Matchers4Impl11MatcherBaseIdEC2Ev
FN:2322,_ZN5Catch8Matchers4Impl11MatcherBaseINSt7__cxx1112basic_stringIcSt11char_traitsIcESaIcEEEED2Ev
FN:2322,_ZN5Catch8Matchers4Impl11MatcherBaseIdED2Ev
FN:2322,_ZN5Catch8Matchers4Impl11MatcherBaseINSt7__cxx1112basic_stringIcSt11char_traitsIcESaIcEEEED0Ev
FN:2445,_ZN5Catch8Matchers8Floating16WithinAbsMatcherD0Ev
FN:2445,_ZN5Catch8Matchers8Floating16WithinAbsMatcherD2Ev
FN:2454,_ZN5Catch8Matchers8Floating17WithinUlpsMatcherD0Ev
FN:2454,_ZN5Catch8Matchers8Floating17WithinUlpsMatcherD2Ev
FN:2533,_ZN5Catch8Matchers9StdString11CasedStringD2Ev
FN:2533,_ZN5Catch8Matchers9StdString11CasedStringC2ERKS2_
FN:2543,_ZN5Catch8Matchers9StdString17StringMatcherBaseD2Ev
FN:2543,_ZN5Catch8Matchers9StdString17StringMatcherBaseD0Ev
FN:2551,_ZN5Catch8Matchers9StdString13EqualsMatcherD0Ev
FN:2551,_ZN5Catch8Matchers9StdString13EqualsMatcherD2Ev
FN:2555,_ZN5Catch8Matchers9StdString15ContainsMatcherD0Ev
FN:2555,_ZN5Catch8Matchers9StdString15ContainsMatcherD2Ev
FN:2559,_ZN5Catch8Matchers9StdString17StartsWithMatcherD2Ev
FN:2559,_ZN5Catch8Matchers9StdString17StartsWithMatcherD0Ev
FN:2563,_ZN5Catch8Matchers9StdString15EndsWithMatcherD2Ev
FN:2563,_ZN5Catch8Matchers9StdString15EndsWithMatcherD0Ev
FN:2568,_ZN5Catch8Matchers9StdString12RegexMatcherD0Ev
FN:2568,_ZN5Catch8Matchers9StdString12RegexMatcherD2Ev
FN:2769,_ZN5Catch9MatchExprINSt7__cxx1112basic_stringIcSt11char_traitsIcESaIcEEERKNS_8Matchers4Impl11MatcherBaseIS6_EEED0Ev
FN:2769,_ZN5Catch9MatchExprINSt7__cxx1112basic_stringIcSt11char_traitsIcESaIcEEERKNS_8Matchers4Impl11MatcherBaseIS6_EEED2Ev
FN:2774,_ZN5Catch9MatchExprINSt7__cxx1112basic_stringIcSt11char_traitsIcESaIcEEERKNS_8Matchers4Impl11MatcherBaseIS6_EEEC2ERKS6_SC_NS_9StringRefE
FN:2781,_ZNK5Catch9MatchExprINSt7__cxx1112basic_stringIcSt11char_traitsIcESaIcEEERKNS_8Matchers4Impl11MatcherBaseIS6_EEE29streamReconstructedExpressionERSo
FN:2852,_ZN5Catch12TestCaseInfoC2EOS0_
FN:2852,_ZN5Catch12TestCaseInfoaSEOS0_
FN:2852,_ZN5Catch12TestCaseInfoC2ERKS0_
FN:2852,_ZN5Catch12TestCaseInfoD2Ev
FN:2887,_ZN5Catch8TestCaseaSEOS0_
FN:2887,_ZN5Catch8TestCaseC2EOS0_
FN:2887,_ZN5Catch8TestCaseD2Ev
FN:2887,_ZN5Catch8TestCaseC2ERKS0_
FN:2920,_ZN5Catch7IRunnerD2Ev
FN:2920,_ZN5Catch7IRunnerD0Ev
FN:2920,_ZN5Catch7IRunnerC2Ev
FN:3170,_ZN5Catch15WildcardPatternD2Ev
FN:3170,_ZN5Catch15WildcardPatternD0Ev
FN:3188,_ZN5Catch8TestSpecC2ERKS0_
FN:3188,_ZN5Catch8TestSpecD2Ev
FN:3188,_ZN5Catch8TestSpecC2Ev
FN:3188,_ZN5Catch8TestSpecaSEOS0_
FN:3189,_ZN5Catch8TestSpec7PatternD2Ev
FN:3189,_ZN5Catch8TestSpec7PatternC2Ev
FN:3189,_ZN5Catch8TestSpec7PatternD0Ev
FN:3195,_ZN5Catch8TestSpec11NamePatternD2Ev
FN:3195,_ZN5Catch8TestSpec11NamePatternD0Ev
FN:3204,_ZN5Catch8TestSpec10TagPatternD2Ev
FN:3204,_ZN5Catch8TestSpec10TagPatternD0Ev
FN:3213,_ZN5Catch8TestSpec15ExcludedPatternD2Ev
FN:3213,_ZN5Catch8TestSpec15ExcludedPatternD0Ev
FN:3222,_ZN5Catch8TestSpec6FilterC2EOS1_
FN:3222,_ZN5Catch8TestSpec6FilterC2ERKS1_
FN:3222,_ZN5Catch8TestSpec6FilteraSEOS1_
FN:3222,_ZN5Catch8TestSpec6FilterC2Ev
FN:3222,_ZN5Catch8TestSpec6FilterD2Ev
FN:3252,_ZN5Catch17ITagAliasRegistryC2Ev
FN:3266,_ZN5Catch14TestSpecParserD2Ev
FN:3290,_ZN5Catch14TestSpecParser10addPatternINS_8TestSpec10TagPatternEEEvv
FN:3290,_ZN5Catch14TestSpecParser10addPatternINS_8TestSpec11NamePatternEEEvv
FN:3365,_ZN5Catch7IConfigD2Ev
FN:3365,_ZN5Catch7IConfigD0Ev
FN:3365,_ZN5Catch7IConfigC2Ev
FN:3407,_ZN5Catch10ConfigDataaSERKS0_
FN:3407,_ZN5Catch10ConfigDataD2Ev
FN:3407,_ZN5Catch10ConfigDataC2ERKS0_
FN:3407,_ZN5Catch10ConfigDataC2Ev
FN:3450,_ZN5Catch6ConfigD0Ev
FN:3450,_ZN5Catch6ConfigD2Ev
FN:3506,_ZN5Catch19AssertionResultDataD2Ev
FN:3506,_ZN5Catch19AssertionResultDataC2ERKS0_
FN:3520,_ZN5Catch15AssertionResultC2ERKS0_
FN:3520,_ZN5Catch15AssertionResultD2Ev
FN:3554,_ZN5Catch6OptionINS_11TestRunInfoEEC2Ev
FN:3554,_ZN5Catch6OptionINS_12TestCaseInfoEEC2Ev
FN:3554,_ZN5Catch6OptionINS_9GroupInfoEEC2Ev
FN:3554,_ZN5Catch6OptionINS_15AssertionResultEEC2Ev
FN:3554,_ZN5Catch6OptionImEC2Ev
FN:3562,_ZN5Catch6OptionINS_11TestRunInfoEED2Ev
FN:3562,_ZN5Catch6OptionINS_12TestCaseInfoEED2Ev
FN:3562,_ZN5Catch6OptionINS_15AssertionResultEED2Ev
FN:3562,_ZN5Catch6OptionImED2Ev
FN:3562,_ZN5Catch6OptionINS_9GroupInfoEED2Ev
FN:3574,_ZN5Catch6OptionINS_12TestCaseInfoEEaSERKS1_
FN:3574,_ZN5Catch6OptionINS_15AssertionResultEEaSERKS1_
FN:3574,_ZN5Catch6OptionImEaSERKm
FN:3574,_ZN5Catch6OptionINS_9GroupInfoEEaSERKS1_
FN:3574,_ZN5Catch6OptionINS_11TestRunInfoEEaSERKS1_
FN:3580,_ZN5Catch6OptionINS_15AssertionResultEE5resetEv
FN:3580,_ZN5Catch6OptionINS_9GroupInfoEE5resetEv
FN:3580,_ZN5Catch6OptionImE5resetEv
FN:3580,_ZN5Catch6OptionINS_11TestRunInfoEE5resetEv
FN:3580,_ZN5Catch6OptionINS_12TestCaseInfoEE5resetEv
FN:3586,_ZN5Catch6OptionImEdeEv
FN:3587,_ZNK5Catch6OptionINS_15AssertionResultEEdeEv
FN:3588,_ZN5Catch6OptionINS_11TestRunInfoEEptEv
FN:3588,_ZN5Catch6OptionINS_12TestCaseInfoEEptEv
FN:3588,_ZN5Catch6OptionINS_9GroupInfoEEptEv
FN:3591,_ZNK5Catch6OptionImE7valueOrERKm
FN:3595,_ZNK5Catch6OptionImE4someEv
FN:3599,_ZNK5Catch6OptionImEcvbEv
FN:3619,_ZN5Catch14ReporterConfigD2Ev
FN:3632,_ZN5Catch19ReporterPreferencesC2Ev
FN:3638,_ZN5Catch8LazyStatINS_9GroupInfoEED2Ev
FN:3638,_ZN5Catch8LazyStatINS_12TestCaseInfoEED2Ev
FN:3638,_ZN5Catch8LazyStatINS_11TestRunInfoEEC2Ev
FN:3638,_ZN5Catch8LazyStatINS_11TestRunInfoEED2Ev
FN:3638,_ZN5Catch8LazyStatINS_12TestCaseInfoEEC2Ev
FN:3638,_ZN5Catch8LazyStatINS_9GroupInfoEEC2Ev
FN:3639,_ZN5Catch8LazyStatINS_9GroupInfoEEaSERKS1_
FN:3639,_ZN5Catch8LazyStatINS_11TestRunInfoEEaSERKS1_
FN:3639,_ZN5Catch8LazyStatINS_12TestCaseInfoEEaSERKS1_
FN:3644,_ZN5Catch8LazyStatINS_11TestRunInfoEE5resetEv
FN:3644,_ZN5Catch8LazyStatINS_9GroupInfoEE5resetEv
FN:3644,_ZN5Catch8LazyStatINS_12TestCaseInfoEE5resetEv
FN:3651,_ZN5Catch11TestRunInfoD2Ev
FN:3651,_ZN5Catch11TestRunInfoC2ERKS0_
FN:3655,_ZN5Catch9GroupInfoD2Ev
FN:3655,_ZN5Catch9GroupInfoC2ERKS0_
FN:3665,_ZN5Catch14AssertionStatsD2Ev
FN:3665,_ZN5Catch14AssertionStatsD0Ev
FN:3670,_ZN5Catch14AssertionStatsC2ERKS0_
FN:3681,_ZN5Catch12SectionStatsaSERKS0_
FN:3681,_ZN5Catch12SectionStatsD2Ev
FN:3681,_ZN5Catch12SectionStatsD0Ev
FN:3686,_ZN5Catch12SectionStatsC2ERKS0_
FN:3698,_ZN5Catch13TestCaseStatsD0Ev
FN:3698,_ZN5Catch13TestCaseStatsD2Ev
FN:3705,_ZN5Catch13TestCaseStatsC2ERKS0_
FN:3718,_ZN5Catch14TestGroupStatsD0Ev
FN:3718,_ZN5Catch14TestGroupStatsD2Ev
FN:3724,_ZN5Catch14TestGroupStatsC2ERKS0_
FN:3735,_ZN5Catch12TestRunStatsD2Ev
FN:3735,_ZN5Catch12TestRunStatsD0Ev
FN:3740,_ZN5Catch12TestRunStatsC2ERKS0_
FN:3751,_ZN5Catch13BenchmarkInfoD2Ev
FN:3754,_ZN5Catch14BenchmarkStatsD2Ev
FN:3760,_ZN5Catch18IStreamingReporterC2Ev
FN:3761,_ZN5Catch18IStreamingReporterD0Ev
FN:3761,_ZN5Catch18IStreamingReporterD2Ev
FN:3778,_ZN5Catch18IStreamingReporter17benchmarkStartingERKNS_13BenchmarkInfoE
FN:3786,_ZN5Catch18IStreamingReporter14benchmarkEndedERKNS_14BenchmarkStatsE
FN:3802,_ZN5Catch16IReporterFactoryD0Ev
FN:3802,_ZN5Catch16IReporterFactoryC2Ev
FN:3802,_ZN5Catch16IReporterFactoryD2Ev
FN:3809,_ZN5Catch17IReporterRegistryD2Ev
FN:3809,_ZN5Catch17IReporterRegistryC2Ev
FN:3809,_ZN5Catch17IReporterRegistryD0Ev
FN:3839,_ZN5Catch21StreamingReporterBaseINS_11XmlReporterEEC2ERKNS_14ReporterConfigE
FN:3839,_ZN5Catch21StreamingReporterBaseINS_21TestEventListenerBaseEEC2ERKNS_14ReporterConfigE
FN:3839,_ZN5Catch21StreamingReporterBaseINS_15CompactReporterEEC2ERKNS_14ReporterConfigE
FN:3839,_ZN5Catch21StreamingReporterBaseINS_15ConsoleReporterEEC2ERKNS_14ReporterConfigE
FN:3848,_ZNK5Catch21StreamingReporterBaseINS_15CompactReporterEE14getPreferencesEv
FN:3848,_ZNK5Catch21StreamingReporterBaseINS_21TestEventListenerBaseEE14getPreferencesEv
FN:3848,_ZNK5Catch21StreamingReporterBaseINS_15ConsoleReporterEE14getPreferencesEv
FN:3848,_ZNK5Catch21StreamingReporterBaseINS_11XmlReporterEE14getPreferencesEv
FN:3852,_ZN5Catch21StreamingReporterBaseINS_15CompactReporterEE23getSupportedVerbositiesEv
FN:3852,_ZN5Catch21StreamingReporterBaseINS_11XmlReporterEE23getSupportedVerbositiesEv
FN:3852,_ZN5Catch21StreamingReporterBaseINS_15ConsoleReporterEE23getSupportedVerbositiesEv
FN:3852,_ZN5Catch21StreamingReporterBaseINS_21TestEventListenerBaseEE23getSupportedVerbositiesEv
FN:3856,_ZN5Catch21StreamingReporterBaseINS_15ConsoleReporterEED2Ev
FN:3856,_ZN5Catch21StreamingReporterBaseINS_15CompactReporterEED0Ev
FN:3856,_ZN5Catch21StreamingReporterBaseINS_21TestEventListenerBaseEED2Ev
FN:3856,_ZN5Catch21StreamingReporterBaseINS_11XmlReporterEED2Ev
FN:3856,_ZN5Catch21StreamingReporterBaseINS_11XmlReporterEED0Ev
FN:3856,_ZN5Catch21StreamingReporterBaseINS_15ConsoleReporterEED0Ev
FN:3856,_ZN5Catch21StreamingReporterBaseINS_21TestEventListenerBaseEED0Ev
FN:3856,_ZN5Catch21StreamingReporterBaseINS_15CompactReporterEED2Ev
FN:3858,_ZN5Catch21StreamingReporterBaseINS_15CompactReporterEE19noMatchingTestCasesERKNSt7__cxx1112basic_stringIcSt11char_traitsIcESaIcEEE
FN:3858,_ZN5Catch21StreamingReporterBaseINS_11XmlReporterEE19noMatchingTestCasesERKNSt7__cxx1112basic_stringIcSt11char_traitsIcESaIcEEE
FN:3858,_ZN5Catch21StreamingReporterBaseINS_15ConsoleReporterEE19noMatchingTestCasesERKNSt7__cxx1112basic_stringIcSt11char_traitsIcESaIcEEE
FN:3858,_ZN5Catch21StreamingReporterBaseINS_21TestEventListenerBaseEE19noMatchingTestCasesERKNSt7__cxx1112basic_stringIcSt11char_traitsIcESaIcEEE
FN:3860,_ZN5Catch21StreamingReporterBaseINS_11XmlReporterEE15testRunStartingERKNS_11TestRunInfoE
FN:3860,_ZN5Catch21StreamingReporterBaseINS_15ConsoleReporterEE15testRunStartingERKNS_11TestRunInfoE
FN:3860,_ZN5Catch21StreamingReporterBaseINS_21TestEventListenerBaseEE15testRunStartingERKNS_11TestRunInfoE
FN:3860,_ZN5Catch21StreamingReporterBaseINS_15CompactReporterEE15testRunStartingERKNS_11TestRunInfoE
FN:3863,_ZN5Catch21StreamingReporterBaseINS_15CompactReporterEE17testGroupStartingERKNS_9GroupInfoE
FN:3863,_ZN5Catch21StreamingReporterBaseINS_11XmlReporterEE17testGroupStartingERKNS_9GroupInfoE
FN:3863,_ZN5Catch21StreamingReporterBaseINS_15ConsoleReporterEE17testGroupStartingERKNS_9GroupInfoE
FN:3863,_ZN5Catch21StreamingReporterBaseINS_21TestEventListenerBaseEE17testGroupStartingERKNS_9GroupInfoE
FN:3867,_ZN5Catch21StreamingReporterBaseINS_11XmlReporterEE16testCaseStartingERKNS_12TestCaseInfoE
FN:3867,_ZN5Catch21StreamingReporterBaseINS_15CompactReporterEE16testCaseStartingERKNS_12TestCaseInfoE
FN:3867,_ZN5Catch21StreamingReporterBaseINS_21TestEventListenerBaseEE16testCaseStartingERKNS_12TestCaseInfoE
FN:3867,_ZN5Catch21StreamingReporterBaseINS_15ConsoleReporterEE16testCaseStartingERKNS_12TestCaseInfoE
FN:3870,_ZN5Catch21StreamingReporterBaseINS_11XmlReporterEE15sectionStartingERKNS_11SectionInfoE
FN:3870,_ZN5Catch21StreamingReporterBaseINS_21TestEventListenerBaseEE15sectionStartingERKNS_11SectionInfoE
FN:3870,_ZN5Catch21StreamingReporterBaseINS_15CompactReporterEE15sectionStartingERKNS_11SectionInfoE
FN:3870,_ZN5Catch21StreamingReporterBaseINS_15ConsoleReporterEE15sectionStartingERKNS_11SectionInfoE
FN:3874,_ZN5Catch21StreamingReporterBaseINS_21TestEventListenerBaseEE12sectionEndedERKNS_12SectionStatsE
FN:3874,_ZN5Catch21StreamingReporterBaseINS_15CompactReporterEE12sectionEndedERKNS_12SectionStatsE
FN:3874,_ZN5Catch21StreamingReporterBaseINS_15ConsoleReporterEE12sectionEndedERKNS_12SectionStatsE
FN:3874,_ZN5Catch21StreamingReporterBaseINS_11XmlReporterEE12sectionEndedERKNS_12SectionStatsE
FN:3877,_ZN5Catch21StreamingReporterBaseINS_15ConsoleReporterEE13testCaseEndedERKNS_13TestCaseStatsE
FN:3877,_ZN5Catch21StreamingReporterBaseINS_11XmlReporterEE13testCaseEndedERKNS_13TestCaseStatsE
FN:3877,_ZN5Catch21StreamingReporterBaseINS_21TestEventListenerBaseEE13testCaseEndedERKNS_13TestCaseStatsE
FN:3877,_ZN5Catch21StreamingReporterBaseINS_15CompactReporterEE13testCaseEndedERKNS_13TestCaseStatsE
FN:3880,_ZN5Catch21StreamingReporterBaseINS_15ConsoleReporterEE14testGroupEndedERKNS_14TestGroupStatsE
FN:3880,_ZN5Catch21StreamingReporterBaseINS_21TestEventListenerBaseEE14testGroupEndedERKNS_14TestGroupStatsE
FN:3880,_ZN5Catch21StreamingReporterBaseINS_11XmlReporterEE14testGroupEndedERKNS_14TestGroupStatsE
FN:3880,_ZN5Catch21StreamingReporterBaseINS_15CompactReporterEE14testGroupEndedERKNS_14TestGroupStatsE
FN:3883,_ZN5Catch21StreamingReporterBaseINS_21TestEventListenerBaseEE12testRunEndedERKNS_12TestRunStatsE
FN:3883,_ZN5Catch21StreamingReporterBaseINS_11XmlReporterEE12testRunEndedERKNS_12TestRunStatsE
FN:3883,_ZN5Catch21StreamingReporterBaseINS_15CompactReporterEE12testRunEndedERKNS_12TestRunStatsE
FN:3883,_ZN5Catch21StreamingReporterBaseINS_15ConsoleReporterEE12testRunEndedERKNS_12TestRunStatsE
FN:3889,_ZN5Catch21StreamingReporterBaseINS_15CompactReporterEE8skipTestERKNS_12TestCaseInfoE
FN:3889,_ZN5Catch21StreamingReporterBaseINS_15ConsoleReporterEE8skipTestERKNS_12TestCaseInfoE
FN:3889,_ZN5Catch21StreamingReporterBaseINS_11XmlReporterEE8skipTestERKNS_12TestCaseInfoE
FN:3889,_ZN5Catch21StreamingReporterBaseINS_21TestEventListenerBaseEE8skipTestERKNS_12TestCaseInfoE
FN:3909,_ZN5Catch22CumulativeReporterBaseINS_13JunitReporterEE4NodeINS_12TestRunStatsENS3_INS_14TestGroupStatsENS3_INS_13TestCaseStatsENS2_11SectionNodeEEEEEEC2ERKS4_
FN:3909,_ZN5Catch22CumulativeReporterBaseINS_13JunitReporterEE4NodeINS_14TestGroupStatsENS3_INS_13TestCaseStatsENS2_11SectionNodeEEEEC2ERKS4_
FN:3909,_ZN5Catch22CumulativeReporterBaseINS_13JunitReporterEE4NodeINS_13TestCaseStatsENS2_11SectionNodeEEC2ERKS4_
FN:3910,_ZN5Catch22CumulativeReporterBaseINS_13JunitReporterEE4NodeINS_12TestRunStatsENS3_INS_14TestGroupStatsENS3_INS_13TestCaseStatsENS2_11SectionNodeEEEEEED2Ev
FN:3910,_ZN5Catch22CumulativeReporterBaseINS_13JunitReporterEE4NodeINS_13TestCaseStatsENS2_11SectionNodeEED2Ev
FN:3910,_ZN5Catch22CumulativeReporterBaseINS_13JunitReporterEE4NodeINS_14TestGroupStatsENS3_INS_13TestCaseStatsENS2_11SectionNodeEEEED0Ev
FN:3910,_ZN5Catch22CumulativeReporterBaseINS_13JunitReporterEE4NodeINS_12TestRunStatsENS3_INS_14TestGroupStatsENS3_INS_13TestCaseStatsENS2_11SectionNodeEEEEEED0Ev
FN:3910,_ZN5Catch22CumulativeReporterBaseINS_13JunitReporterEE4NodeINS_13TestCaseStatsENS2_11SectionNodeEED0Ev
FN:3910,_ZN5Catch22CumulativeReporterBaseINS_13JunitReporterEE4NodeINS_14TestGroupStatsENS3_INS_13TestCaseStatsENS2_11SectionNodeEEEED2Ev
FN:3917,_ZN5Catch22CumulativeReporterBaseINS_13JunitReporterEE11SectionNodeC2ERKNS_12SectionStatsE
FN:3918,_ZN5Catch22CumulativeReporterBaseINS_13JunitReporterEE11SectionNodeD2Ev
FN:3918,_ZN5Catch22CumulativeReporterBaseINS_13JunitReporterEE11SectionNodeD0Ev
FN:3937,_ZN5Catch22CumulativeReporterBaseINS_13JunitReporterEE13BySectionInfoC2ERKNS_11SectionInfoE
FN:3938,_ZN5Catch22CumulativeReporterBaseINS_13JunitReporterEE13BySectionInfoC2ERKS3_
FN:3939,_ZNK5Catch22CumulativeReporterBaseINS_13JunitReporterEE13BySectionInfoclERKSt10shared_ptrINS2_11SectionNodeEE
FN:3953,_ZN5Catch22CumulativeReporterBaseINS_13JunitReporterEEC2ERKNS_14ReporterConfigE
FN:3961,_ZN5Catch22CumulativeReporterBaseINS_13JunitReporterEED0Ev
FN:3961,_ZN5Catch22CumulativeReporterBaseINS_13JunitReporterEED2Ev
FN:3963,_ZNK5Catch22CumulativeReporterBaseINS_13JunitReporterEE14getPreferencesEv
FN:3967,_ZN5Catch22CumulativeReporterBaseINS_13JunitReporterEE23getSupportedVerbositiesEv
FN:3971,_ZN5Catch22CumulativeReporterBaseINS_13JunitReporterEE15testRunStartingERKNS_11TestRunInfoE
FN:3972,_ZN5Catch22CumulativeReporterBaseINS_13JunitReporterEE17testGroupStartingERKNS_9GroupInfoE
FN:3974,_ZN5Catch22CumulativeReporterBaseINS_13JunitReporterEE16testCaseStartingERKNS_12TestCaseInfoE
FN:3976,_ZN5Catch22CumulativeReporterBaseINS_13JunitReporterEE15sectionStartingERKNS_11SectionInfoE
FN:4001,_ZN5Catch22CumulativeReporterBaseINS_13JunitReporterEE17assertionStartingERKNS_13AssertionInfoE
FN:4003,_ZN5Catch22CumulativeReporterBaseINS_13JunitReporterEE14assertionEndedERKNS_14AssertionStatsE
FN:4015,_ZN5Catch22CumulativeReporterBaseINS_13JunitReporterEE12sectionEndedERKNS_12SectionStatsE
FN:4021,_ZN5Catch22CumulativeReporterBaseINS_13JunitReporterEE13testCaseEndedERKNS_13TestCaseStatsE
FN:4032,_ZN5Catch22CumulativeReporterBaseINS_13JunitReporterEE14testGroupEndedERKNS_14TestGroupStatsE
FN:4037,_ZN5Catch22CumulativeReporterBaseINS_13JunitReporterEE12testRunEndedERKNS_12TestRunStatsE
FN:4045,_ZN5Catch22CumulativeReporterBaseINS_13JunitReporterEE8skipTestERKNS_12TestCaseInfoE
FN:4063,_ZN5Catch14getLineOfCharsILc45EEEPKcv
FN:4063,_ZN5Catch14getLineOfCharsILc126EEEPKcv
FN:4063,_ZN5Catch14getLineOfCharsILc46EEEPKcv
FN:4072,_ZN5Catch21TestEventListenerBaseD0Ev
FN:4072,_ZN5Catch21TestEventListenerBaseD2Ev
FN:4149,_ZN5Catch17ReporterRegistrarINS_11XmlReporterEE15ReporterFactoryD0Ev
FN:4149,_ZN5Catch17ReporterRegistrarINS_15CompactReporterEE15ReporterFactoryD2Ev
FN:4149,_ZN5Catch17ReporterRegistrarINS_15ConsoleReporterEE15ReporterFactoryD0Ev
FN:4149,_ZN5Catch17ReporterRegistrarINS_13JunitReporterEE15ReporterFactoryD0Ev
FN:4149,_ZN5Catch17ReporterRegistrarINS_13JunitReporterEE15ReporterFactoryD2Ev
FN:4149,_ZN5Catch17ReporterRegistrarINS_15CompactReporterEE15ReporterFactoryC2Ev
FN:4149,_ZN5Catch17ReporterRegistrarINS_15ConsoleReporterEE15ReporterFactoryD2Ev
FN:4149,_ZN5Catch17ReporterRegistrarINS_11XmlReporterEE15ReporterFactoryD2Ev
FN:4149,_ZN5Catch17ReporterRegistrarINS_13JunitReporterEE15ReporterFactoryC2Ev
FN:4149,_ZN5Catch17ReporterRegistrarINS_15ConsoleReporterEE15ReporterFactoryC2Ev
FN:4149,_ZN5Catch17ReporterRegistrarINS_15CompactReporterEE15ReporterFactoryD0Ev
FN:4149,_ZN5Catch17ReporterRegistrarINS_11XmlReporterEE15ReporterFactoryC2Ev
FN:4151,_ZNK5Catch17ReporterRegistrarINS_15CompactReporterEE15ReporterFactory6createERKNS_14ReporterConfigE
FN:4151,_ZNK5Catch17ReporterRegistrarINS_13JunitReporterEE15ReporterFactory6createERKNS_14ReporterConfigE
FN:4151,_ZNK5Catch17ReporterRegistrarINS_11XmlReporterEE15ReporterFactory6createERKNS_14ReporterConfigE
FN:4151,_ZNK5Catch17ReporterRegistrarINS_15ConsoleReporterEE15ReporterFactory6createERKNS_14ReporterConfigE
FN:4155,_ZNK5Catch17ReporterRegistrarINS_15ConsoleReporterEE15ReporterFactory14getDescriptionB5cxx11Ev
FN:4155,_ZNK5Catch17ReporterRegistrarINS_13JunitReporterEE15ReporterFactory14getDescriptionB5cxx11Ev
FN:4155,_ZNK5Catch17ReporterRegistrarINS_11XmlReporterEE15ReporterFactory14getDescriptionB5cxx11Ev
FN:4155,_ZNK5Catch17ReporterRegistrarINS_15CompactReporterEE15ReporterFactory14getDescriptionB5cxx11Ev
FN:4162,_ZN5Catch17ReporterRegistrarINS_15CompactReporterEEC2ERKNSt7__cxx1112basic_stringIcSt11char_traitsIcESaIcEEE
FN:4162,_ZN5Catch17ReporterRegistrarINS_15ConsoleReporterEEC2ERKNSt7__cxx1112basic_stringIcSt11char_traitsIcESaIcEEE
FN:4162,_ZN5Catch17ReporterRegistrarINS_11XmlReporterEEC2ERKNSt7__cxx1112basic_stringIcSt11char_traitsIcESaIcEEE
FN:4162,_ZN5Catch17ReporterRegistrarINS_13JunitReporterEEC2ERKNSt7__cxx1112basic_stringIcSt11char_traitsIcESaIcEEE
FN:4214,_ZN5Catch15CompactReporterCI2NS_21StreamingReporterBaseIS0_EEERKNS_14ReporterConfigE
FN:4251,_ZN5Catch15ConsoleReporterD0Ev
FN:4251,_ZN5Catch15ConsoleReporterD2Ev
FN:4315,_ZN5Catch9XmlEncodeD2Ev
FN:4345,_ZN5Catch9XmlWriter13ScopedElement14writeAttributeIdEERS1_RKNSt7__cxx1112basic_stringIcSt11char_traitsIcESaIcEEERKT_
FN:4345,_ZN5Catch9XmlWriter13ScopedElement14writeAttributeIbEERS1_RKNSt7__cxx1112basic_stringIcSt11char_traitsIcESaIcEEERKT_
FN:4345,_ZN5Catch9XmlWriter13ScopedElement14writeAttributeImEERS1_RKNSt7__cxx1112basic_stringIcSt11char_traitsIcESaIcEEERKT_
FN:4371,_ZN5Catch9XmlWriter14writeAttributeIPKcEERS0_RKNSt7__cxx1112basic_stringIcSt11char_traitsIcESaIcEEERKT_
FN:4371,_ZN5Catch9XmlWriter14writeAttributeINS_9StringRefEEERS0_RKNSt7__cxx1112basic_stringIcSt11char_traitsIcESaIcEEERKT_
FN:4371,_ZN5Catch9XmlWriter14writeAttributeIjEERS0_RKNSt7__cxx1112basic_stringIcSt11char_traitsIcESaIcEEERKT_
FN:4371,_ZN5Catch9XmlWriter14writeAttributeIA4_cEERS0_RKNSt7__cxx1112basic_stringIcSt11char_traitsIcESaIcEEERKT_
FN:4371,_ZN5Catch9XmlWriter14writeAttributeIdEERS0_RKNSt7__cxx1112basic_stringIcSt11char_traitsIcESaIcEEERKT_
FN:4371,_ZN5Catch9XmlWriter14writeAttributeImEERS0_RKNSt7__cxx1112basic_stringIcSt11char_traitsIcESaIcEEERKT_
FN:4371,_ZN5Catch9XmlWriter14writeAttributeIA5_cEERS0_RKNSt7__cxx1112basic_stringIcSt11char_traitsIcESaIcEEERKT_
FN:4371,_ZN5Catch9XmlWriter14writeAttributeIA1_cEERS0_RKNSt7__cxx1112basic_stringIcSt11char_traitsIcESaIcEEERKT_
FN:4453,_ZN5Catch11XmlReporterD2Ev
FN:4453,_ZN5Catch11XmlReporterD0Ev
FN:4522,_ZN5Catch16TestCaseTracking15NameAndLocationC2EOS1_
FN:4522,_ZN5Catch16TestCaseTracking15NameAndLocationC2ERKS1_
FN:4522,_ZN5Catch16TestCaseTracking15NameAndLocationD2Ev
FN:4533,_ZN5Catch16TestCaseTracking8ITrackerC2Ev
FN:4533,_ZN5Catch16TestCaseTracking8ITrackerD0Ev
FN:4533,_ZN5Catch16TestCaseTracking8ITrackerD2Ev
FN:4561,_ZN5Catch16TestCaseTracking14TrackerContextD2Ev
FN:4561,_ZN5Catch16TestCaseTracking14TrackerContextC2Ev
FN:4588,_ZN5Catch16TestCaseTracking11TrackerBaseD0Ev
FN:4588,_ZN5Catch16TestCaseTracking11TrackerBaseD2Ev
FN:4599,_ZN5Catch16TestCaseTracking11TrackerBase14TrackerHasNameD2Ev
FN:4599,_ZN5Catch16TestCaseTracking11TrackerBase14TrackerHasNameC2EOS2_
FN:4599,_ZN5Catch16TestCaseTracking11TrackerBase14TrackerHasNameC2ERKS2_
FN:4643,_ZN5Catch16TestCaseTracking14SectionTrackerD0Ev
FN:4643,_ZN5Catch16TestCaseTracking14SectionTrackerD2Ev
FN:4658,_ZN5Catch16TestCaseTracking12IndexTrackerD2Ev
FN:4658,_ZN5Catch16TestCaseTracking12IndexTrackerD0Ev
FN:4705,_ZN12_GLOBAL__N_116marginComparisonEddd
FN:4714,_ZN5Catch6Detail6ApproxC2Ed
FN:4721,_ZN5Catch6Detail6Approx6customEv
FN:4725,_ZNK5Catch6Detail6ApproxngEv
FN:4731,_ZNK5Catch6Detail6Approx8toStringB5cxx11Ev
FN:4737,_ZNK5Catch6Detail6Approx22equalityComparisonImplEd
FN:4746,_ZN5Catch8literalsli2_aEe
FN:4749,_ZN5Catch8literalsli2_aEy
FN:4754,_ZN5Catch11StringMakerINS_6Detail6ApproxEvE7convertB5cxx11ERKS2_
FN:4775,_ZN5Catch8IContextD2Ev
FN:4775,_ZN5Catch8IContextC2Ev
FN:4775,_ZN5Catch8IContextD0Ev
FN:4784,_ZN5Catch15IMutableContextD2Ev
FN:4784,_ZN5Catch15IMutableContextC2Ev
FN:4784,_ZN5Catch15IMutableContextD0Ev
FN:4798,_ZN5Catch24getCurrentMutableContextEv
FN:4805,_ZN5Catch17getCurrentContextEv
FN:5063,_ZN5Catch12_GLOBAL__N_1lsERSoRKNS_20ITransientExpressionE
FN:5069,_ZN5Catch14LazyExpressionC2Eb
FN:5073,_ZN5Catch14LazyExpressionC2ERKS0_
FN:5075,_ZNK5Catch14LazyExpressioncvbEv
FN:5079,_ZN5CatchlsERSoRKNS_14LazyExpressionE
FN:5095,_ZN5Catch16AssertionHandlerC2ENS_9StringRefERKNS_14SourceLineInfoES1_NS_17ResultDisposition5FlagsE
FN:5104,_ZN5Catch16AssertionHandler10handleExprERKNS_20ITransientExpressionE
FN:5107,_ZN5Catch16AssertionHandler13handleMessageENS_9ResultWas6OfTypeERKNS_9StringRefE
FN:5111,_ZNK5Catch16AssertionHandler11allowThrowsEv
FN:5115,_ZN5Catch16AssertionHandler8completeEv
FN:5128,_ZN5Catch16AssertionHandler12setCompletedEv
FN:5132,_ZN5Catch16AssertionHandler33handleUnexpectedInflightExceptionEv
FN:5136,_ZN5Catch16AssertionHandler31handleExceptionThrownAsExpectedEv
FN:5139,_ZN5Catch16AssertionHandler34handleExceptionNotThrownAsExpectedEv
FN:5143,_ZN5Catch16AssertionHandler34handleUnexpectedExceptionNotThrownEv
FN:5147,_ZN5Catch16AssertionHandler25handleThrowingCallSkippedEv
FN:5153,_ZN5Catch24handleExceptionMatchExprERNS_16AssertionHandlerERKNSt7__cxx1112basic_stringIcSt11char_traitsIcESaIcEEENS_9StringRefE
FN:5162,_ZN5Catch19AssertionResultDataC2ENS_9ResultWas6OfTypeERKNS_14LazyExpressionE
FN:5166,_ZNK5Catch19AssertionResultData21reconstructExpressionB5cxx11Ev
FN:5178,_ZN5Catch15AssertionResultC2ERKNS_13AssertionInfoERKNS_19AssertionResultDataE
FN:5184,_ZNK5Catch15AssertionResult9succeededEv
FN:5189,_ZNK5Catch15AssertionResult4isOkEv
FN:5193,_ZNK5Catch15AssertionResult13getResultTypeEv
FN:5197,_ZNK5Catch15AssertionResult13hasExpressionEv
FN:5201,_ZNK5Catch15AssertionResult10hasMessageEv
FN:5205,_ZNK5Catch15AssertionResult13getExpressionB5cxx11Ev
FN:5212,_ZNK5Catch15AssertionResult20getExpressionInMacroB5cxx11Ev
FN:5226,_ZNK5Catch15AssertionResult21hasExpandedExpressionEv
FN:5230,_ZNK5Catch15AssertionResult21getExpandedExpressionB5cxx11Ev
FN:5237,_ZNK5Catch15AssertionResult10getMessageB5cxx11Ev
FN:5240,_ZNK5Catch15AssertionResult13getSourceInfoEv
FN:5244,_ZNK5Catch15AssertionResult16getTestMacroNameEv
FN:5254,_ZN5Catch15BenchmarkLooper13getResolutionEv
FN:5258,_ZN5Catch15BenchmarkLooper11reportStartEv
FN:5261,_ZN5Catch15BenchmarkLooper19needsMoreIterationsEv
FN:5285,_ZN5Catch24handleExceptionMatchExprERNS_16AssertionHandlerERKNS_8Matchers4Impl11MatcherBaseINSt7__cxx1112basic_stringIcSt11char_traitsIcESaIcEEEEENS_9StringRefE
FN:5364,_ZN5Catch5clara8TextFlow12isWhitespaceEc
FN:5368,_ZN5Catch5clara8TextFlow17isBreakableBeforeEc
FN:5372,_ZN5Catch5clara8TextFlow16isBreakableAfterEc
FN:5379,_ZN5Catch5clara8TextFlow6ColumnD2Ev
FN:5379,_ZN5Catch5clara8TextFlow6ColumnC2ERKS2_
FN:5379,_ZN5Catch5clara8TextFlow6ColumnC2EOS2_
FN:5397,_ZN5Catch5clara8TextFlow6Column8iteratorC2ERKS2_m
FN:5402,_ZNK5Catch5clara8TextFlow6Column8iterator4lineB5cxx11Ev
FN:5404,_ZNK5Catch5clara8TextFlow6Column8iterator10isBoundaryEm
FN:5414,_ZN5Catch5clara8TextFlow6Column8iterator10calcLengthEv
FN:5442,_ZNK5Catch5clara8TextFlow6Column8iterator6indentEv
FN:5447,_ZNK5Catch5clara8TextFlow6Column8iterator18addIndentAndSuffixERKNSt7__cxx1112basic_stringIcSt11char_traitsIcESaIcEEE
FN:5452,_ZN5Catch5clara8TextFlow6Column8iteratorC2ERKS2_
FN:5460,_ZNK5Catch5clara8TextFlow6Column8iteratordeB5cxx11Ev
FN:5469,_ZN5Catch5clara8TextFlow6Column8iteratorppEv
FN:5491,_ZNK5Catch5clara8TextFlow6Column8iteratoreqERKS3_
FN:5497,_ZNK5Catch5clara8TextFlow6Column8iteratorneERKS3_
FN:5503,_ZN5Catch5clara8TextFlow6ColumnC2ERKNSt7__cxx1112basic_stringIcSt11char_traitsIcESaIcEEE
FN:5505,_ZN5Catch5clara8TextFlow6Column5widthEm
FN:5510,_ZN5Catch5clara8TextFlow6Column6indentEm
FN:5514,_ZN5Catch5clara8TextFlow6Column13initialIndentEm
FN:5519,_ZNK5Catch5clara8TextFlow6Column5widthEv
FN:5520,_ZNK5Catch5clara8TextFlow6Column5beginEv
FN:5521,_ZNK5Catch5clara8TextFlow6Column3endEv
FN:5523,_ZN5Catch5clara8TextFlowlsERSoRKNS1_6ColumnE
FN:5544,_ZN5Catch5clara8TextFlow6SpacerD2Ev
FN:5547,_ZN5Catch5clara8TextFlow6SpacerC2Em
FN:5552,_ZN5Catch5clara8TextFlow7ColumnsC2Ev
FN:5552,_ZN5Catch5clara8TextFlow7ColumnsD2Ev
FN:5552,_ZN5Catch5clara8TextFlow7ColumnsC2ERKS2_
FN:5557,_ZN5Catch5clara8TextFlow7Columns8iteratorD2Ev
FN:5565,_ZN5Catch5clara8TextFlow7Columns8iteratorC2ERKS2_NS3_6EndTagE
FN:5576,_ZN5Catch5clara8TextFlow7Columns8iteratorC2ERKS2_
FN:5589,_ZNK5Catch5clara8TextFlow7Columns8iteratorneERKS3_
FN:5592,_ZNK5Catch5clara8TextFlow7Columns8iteratordeB5cxx11Ev
FN:5611,_ZN5Catch5clara8TextFlow7Columns8iteratorppEv
FN:5626,_ZNK5Catch5clara8TextFlow7Columns5beginEv
FN:5627,_ZNK5Catch5clara8TextFlow7Columns3endEv
FN:5629,_ZN5Catch5clara8TextFlow7ColumnspLERKNS1_6ColumnE
FN:5633,_ZN5Catch5clara8TextFlow7ColumnsplERKNS1_6ColumnE
FN:5639,_ZN5Catch5clara8TextFlowlsERSoRKNS1_7ColumnsE
FN:5659,_ZN5Catch5clara8TextFlow6ColumnplERKS2_
FN:5700,_ZN5Catch5clara6detail4ArgsD2Ev
FN:5706,_ZN5Catch5clara6detail4ArgsC2EiPKPKc
FN:5715,_ZNK5Catch5clara6detail4Args7exeNameB5cxx11Ev
FN:5725,_ZN5Catch5clara6detail5TokenD2Ev
FN:5725,_ZN5Catch5clara6detail5TokenaSEOS2_
FN:5725,_ZN5Catch5clara6detail5TokenC2EOS2_
FN:5725,_ZN5Catch5clara6detail5TokenC2Ev
FN:5725,_ZN5Catch5clara6detail5TokenC2ERKS2_
FN:5730,_ZN5Catch5clara6detail11isOptPrefixEc
FN:5739,_ZN5Catch5clara6detail11TokenStreamD2Ev
FN:5739,_ZN5Catch5clara6detail11TokenStreamC2ERKS2_
FN:5745,_ZN5Catch5clara6detail11TokenStream10loadBufferEv
FN:5777,_ZN5Catch5clara6detail11TokenStreamC2ERKNS1_4ArgsE
FN:5779,_ZN5Catch5clara6detail11TokenStreamC2EN9__gnu_cxx17__normal_iteratorIPKNSt7__cxx1112basic_stringIcSt11char_traitsIcESaIcEEESt6vectorISA_SaISA_EEEESG_
FN:5783,_ZNK5Catch5clara6detail11TokenStreamcvbEv
FN:5789,_ZNK5Catch5clara6detail11TokenStreamdeEv
FN:5794,_ZNK5Catch5clara6detail11TokenStreamptEv
FN:5799,_ZN5Catch5clara6detail11TokenStreamppEv
FN:5811,_ZN5Catch5clara6detail10ResultBaseC2ERKS2_
FN:5811,_ZN5Catch5clara6detail10ResultBaseaSERKS2_
FN:5818,_ZN5Catch5clara6detail10ResultBaseC2ENS2_4TypeE
FN:5819,_ZN5Catch5clara6detail10ResultBaseD0Ev
FN:5819,_ZN5Catch5clara6detail10ResultBaseD2Ev
FN:5829,_ZNK5Catch5clara6detail15ResultValueBaseINS1_10ParseStateEE5valueEv
FN:5829,_ZNK5Catch5clara6detail15ResultValueBaseINS1_15ParseResultTypeEE5valueEv
FN:5835,_ZN5Catch5clara6detail15ResultValueBaseINS1_15ParseResultTypeEEC2ENS1_10ResultBase4TypeE
FN:5835,_ZN5Catch5clara6detail15ResultValueBaseINS1_10ParseStateEEC2ENS1_10ResultBase4TypeE
FN:5837,_ZN5Catch5clara6detail15ResultValueBaseINS1_10ParseStateEEC2ERKS4_
FN:5837,_ZN5Catch5clara6detail15ResultValueBaseINS1_15ParseResultTypeEEC2ERKS4_
FN:5842,_ZN5Catch5clara6detail15ResultValueBaseINS1_15ParseResultTypeEEC2ENS1_10ResultBase4TypeERKS3_
FN:5842,_ZN5Catch5clara6detail15ResultValueBaseINS1_10ParseStateEEC2ENS1_10ResultBase4TypeERKS3_
FN:5846,_ZN5Catch5clara6detail15ResultValueBaseINS1_10ParseStateEEaSERKS4_
FN:5855,_ZN5Catch5clara6detail15ResultValueBaseINS1_10ParseStateEED0Ev
FN:5855,_ZN5Catch5clara6detail15ResultValueBaseINS1_15ParseResultTypeEED0Ev
FN:5855,_ZN5Catch5clara6detail15ResultValueBaseINS1_15ParseResultTypeEED2Ev
FN:5855,_ZN5Catch5clara6detail15ResultValueBaseINS1_10ParseStateEED2Ev
FN:5866,_ZN5Catch5clara6detail15ResultValueBaseIvED2Ev
FN:5866,_ZN5Catch5clara6detail15ResultValueBaseIvEC2EOS3_
FN:5866,_ZN5Catch5clara6detail15ResultValueBaseIvED0Ev
FN:5868,_ZN5Catch5clara6detail15ResultValueBaseIvECI2NS1_10ResultBaseEENS4_4TypeE
FN:5872,_ZN5Catch5clara6detail11BasicResultIvED0Ev
FN:5872,_ZN5Catch5clara6detail11BasicResultINS1_10ParseStateEED2Ev
FN:5872,_ZN5Catch5clara6detail11BasicResultINS1_15ParseResultTypeEED0Ev
FN:5872,_ZN5Catch5clara6detail11BasicResultIvED2Ev
FN:5872,_ZN5Catch5clara6detail11BasicResultINS1_10ParseStateEEC2EOS4_
FN:5872,_ZN5Catch5clara6detail11BasicResultIvEC2EOS3_
FN:5872,_ZN5Catch5clara6detail11BasicResultINS1_10ParseStateEED0Ev
FN:5872,_ZN5Catch5clara6detail11BasicResultINS1_15ParseResultTypeEEC2ERKS4_
FN:5872,_ZN5Catch5clara6detail11BasicResultINS1_15ParseResultTypeEED2Ev
FN:5872,_ZN5Catch5clara6detail11BasicResultINS1_10ParseStateEEaSEOS4_
FN:5875,_ZN5Catch5clara6detail11BasicResultINS1_10ParseStateEEC2INS1_15ParseResultTypeEEERKNS2_IT_EE
FN:5875,_ZN5Catch5clara6detail11BasicResultINS1_10ParseStateEEC2IvEERKNS2_IT_EE
FN:5883,_ZN5Catch5clara6detail11BasicResultINS1_10ParseStateEE2okIS3_EES4_RKT_
FN:5883,_ZN5Catch5clara6detail11BasicResultINS1_15ParseResultTypeEE2okIS3_EES4_RKT_
FN:5884,_ZN5Catch5clara6detail11BasicResultIvE2okEv
FN:5885,_ZN5Catch5clara6detail11BasicResultIvE10logicErrorERKNSt7__cxx1112basic_stringIcSt11char_traitsIcESaIcEEE
FN:5886,_ZN5Catch5clara6detail11BasicResultINS1_15ParseResultTypeEE12runtimeErrorERKNSt7__cxx1112basic_stringIcSt11char_traitsIcESaIcEEE
FN:5886,_ZN5Catch5clara6detail11BasicResultINS1_10ParseStateEE12runtimeErrorERKNSt7__cxx1112basic_stringIcSt11char_traitsIcESaIcEEE
FN:5888,_ZNK5Catch5clara6detail11BasicResultIvEcvbEv
FN:5888,_ZNK5Catch5clara6detail11BasicResultINS1_15ParseResultTypeEEcvbEv
FN:5888,_ZNK5Catch5clara6detail11BasicResultINS1_10ParseStateEEcvbEv
FN:5889,_ZNK5Catch5clara6detail11BasicResultINS1_10ParseStateEE4typeEv
FN:5889,_ZNK5Catch5clara6detail11BasicResultIvE4typeEv
FN:5889,_ZNK5Catch5clara6detail11BasicResultINS1_15ParseResultTypeEE4typeEv
FN:5890,_ZNK5Catch5clara6detail11BasicResultIvE12errorMessageB5cxx11Ev
FN:5890,_ZNK5Catch5clara6detail11BasicResultINS1_15ParseResultTypeEE12errorMessageB5cxx11Ev
FN:5890,_ZNK5Catch5clara6detail11BasicResultINS1_10ParseStateEE12errorMessageB5cxx11Ev
FN:5893,_ZNK5Catch5clara6detail11BasicResultIvE9enforceOkEv
FN:5893,_ZNK5Catch5clara6detail11BasicResultINS1_10ParseStateEE9enforceOkEv
FN:5893,_ZNK5Catch5clara6detail11BasicResultINS1_15ParseResultTypeEE9enforceOkEv
FN:5905,_ZN5Catch5clara6detail11BasicResultINS1_15ParseResultTypeEEC2ENS1_10ResultBase4TypeERKNSt7__cxx1112basic_stringIcSt11char_traitsIcESaIcEEE
FN:5905,_ZN5Catch5clara6detail11BasicResultIvEC2ENS1_10ResultBase4TypeERKNSt7__cxx1112basic_stringIcSt11char_traitsIcESaIcEEE
FN:5905,_ZN5Catch5clara6detail11BasicResultINS1_10ParseStateEEC2ENS1_10ResultBase4TypeERKNSt7__cxx1112basic_stringIcSt11char_traitsIcESaIcEEE
FN:5912,_ZN5Catch5clara6detail11BasicResultINS1_10ParseStateEECI2NS1_15ResultValueBaseIS3_EEENS1_10ResultBase4TypeERKS3_
FN:5912,_ZN5Catch5clara6detail11BasicResultIvECI2NS1_10ResultBaseEENS4_4TypeE
FN:5912,_ZN5Catch5clara6detail11BasicResultINS1_15ParseResultTypeEECI2NS1_15ResultValueBaseIS3_EEENS1_10ResultBase4TypeERKS3_
FN:5920,_ZN5Catch5clara6detail10ParseStateC2ERKS2_
FN:5920,_ZN5Catch5clara6detail10ParseStateD2Ev
FN:5923,_ZN5Catch5clara6detail10ParseStateC2ENS1_15ParseResultTypeERKNS1_11TokenStreamE
FN:5928,_ZNK5Catch5clara6detail10ParseState4typeEv
FN:5929,_ZNK5Catch5clara6detail10ParseState15remainingTokensEv
FN:5940,_ZN5Catch5clara6detail11HelpColumnsaSEOS2_
FN:5940,_ZN5Catch5clara6detail11HelpColumnsaSERKS2_
FN:5940,_ZN5Catch5clara6detail11HelpColumnsC2EOS2_
FN:5940,_ZN5Catch5clara6detail11HelpColumnsD2Ev
FN:5940,_ZN5Catch5clara6detail11HelpColumnsC2ERKS2_
FN:5946,_ZN5Catch5clara6detail11convertIntoIiEENS1_11BasicResultINS1_15ParseResultTypeEEERKNSt7__cxx1112basic_stringIcSt11char_traitsIcESaIcEEERT_
FN:5946,_ZN5Catch5clara6detail11convertIntoIjEENS1_11BasicResultINS1_15ParseResultTypeEEERKNSt7__cxx1112basic_stringIcSt11char_traitsIcESaIcEEERT_
FN:5955,_ZN5Catch5clara6detail11convertIntoERKNSt7__cxx1112basic_stringIcSt11char_traitsIcESaIcEEERS7_
FN:5959,_ZN5Catch5clara6detail11convertIntoERKNSt7__cxx1112basic_stringIcSt11char_traitsIcESaIcEEERb
FN:5961,_ZZN5Catch5clara6detail11convertIntoERKNSt7__cxx1112basic_stringIcSt11char_traitsIcESaIcEEERbENUlcE_4_FUNEc
FN:5961,_ZZN5Catch5clara6detail11convertIntoERKNSt7__cxx1112basic_stringIcSt11char_traitsIcESaIcEEERbENKUlcE_clEc
FN:5989,_ZN5Catch5clara6detail8BoundRefC2Ev
FN:5990,_ZN5Catch5clara6detail8BoundRefD2Ev
FN:5990,_ZN5Catch5clara6detail8BoundRefD0Ev
FN:5991,_ZNK5Catch5clara6detail8BoundRef11isContainerEv
FN:5992,_ZNK5Catch5clara6detail8BoundRef6isFlagEv
FN:5994,_ZN5Catch5clara6detail17BoundValueRefBaseD0Ev
FN:5994,_ZN5Catch5clara6detail17BoundValueRefBaseC2Ev
FN:5994,_ZN5Catch5clara6detail17BoundValueRefBaseD2Ev
FN:5997,_ZN5Catch5clara6detail16BoundFlagRefBaseD2Ev
FN:5997,_ZN5Catch5clara6detail16BoundFlagRefBaseC2Ev
FN:5997,_ZN5Catch5clara6detail16BoundFlagRefBaseD0Ev
FN:5999,_ZNK5Catch5clara6detail16BoundFlagRefBase6isFlagEv
FN:6003,_ZN5Catch5clara6detail13BoundValueRefINSt7__cxx1112basic_stringIcSt11char_traitsIcESaIcEEEED0Ev
FN:6003,_ZN5Catch5clara6detail13BoundValueRefIiED2Ev
FN:6003,_ZN5Catch5clara6detail13BoundValueRefIiED0Ev
FN:6003,_ZN5Catch5clara6detail13BoundValueRefINSt7__cxx1112basic_stringIcSt11char_traitsIcESaIcEEEED2Ev
FN:6006,_ZN5Catch5clara6detail13BoundValueRefIiEC2ERi
FN:6006,_ZN5Catch5clara6detail13BoundValueRefINSt7__cxx1112basic_stringIcSt11char_traitsIcESaIcEEEEC2ERS8_
FN:6008,_ZN5Catch5clara6detail13BoundValueRefINSt7__cxx1112basic_stringIcSt11char_traitsIcESaIcEEEE8setValueERKS8_
FN:6008,_ZN5Catch5clara6detail13BoundValueRefIiE8setValueERKNSt7__cxx1112basic_stringIcSt11char_traitsIcESaIcEEE
FN:6014,_ZN5Catch5clara6detail13BoundValueRefISt6vectorINSt7__cxx1112basic_stringIcSt11char_traitsIcESaIcEEESaIS9_EEED2Ev
FN:6014,_ZN5Catch5clara6detail13BoundValueRefISt6vectorINSt7__cxx1112basic_stringIcSt11char_traitsIcESaIcEEESaIS9_EEED0Ev
FN:6017,_ZN5Catch5clara6detail13BoundValueRefISt6vectorINSt7__cxx1112basic_stringIcSt11char_traitsIcESaIcEEESaIS9_EEEC2ERSB_
FN:6019,_ZNK5Catch5clara6detail13BoundValueRefISt6vectorINSt7__cxx1112basic_stringIcSt11char_traitsIcESaIcEEESaIS9_EEE11isContainerEv
FN:6021,_ZN5Catch5clara6detail13BoundValueRefISt6vectorINSt7__cxx1112basic_stringIcSt11char_traitsIcESaIcEEESaIS9_EEE8setValueERKS9_
FN:6030,_ZN5Catch5clara6detail12BoundFlagRefD0Ev
FN:6030,_ZN5Catch5clara6detail12BoundFlagRefD2Ev
FN:6033,_ZN5Catch5clara6detail12BoundFlagRefC2ERb
FN:6035,_ZN5Catch5clara6detail12BoundFlagRef7setFlagEb
FN:6046,_ZN5Catch5clara6detail13LambdaInvokerINS1_11BasicResultINS1_15ParseResultTypeEEEE6invokeIZNS_21makeCommandLineParserERNS_10ConfigDataEEUlRKNSt7__cxx1112basic_stringIcSt11char_traitsIcESaIcEEEE_SF_EES5_RKT_RKT0_
FN:6046,_ZN5Catch5clara6detail13LambdaInvokerINS1_11BasicResultINS1_15ParseResultTypeEEEE6invokeIZNS_21makeCommandLineParserERNS_10ConfigDataEEUlRKNSt7__cxx1112basic_stringIcSt11char_traitsIcESaIcEEEE4_SF_EES5_RKT_RKT0_
FN:6046,_ZN5Catch5clara6detail13LambdaInvokerINS1_11BasicResultINS1_15ParseResultTypeEEEE6invokeIZNS_21makeCommandLineParserERNS_10ConfigDataEEUlRKNSt7__cxx1112basic_stringIcSt11char_traitsIcESaIcEEEE5_SF_EES5_RKT_RKT0_
FN:6046,_ZN5Catch5clara6detail13LambdaInvokerINS1_11BasicResultINS1_15ParseResultTypeEEEE6invokeIZNS1_4HelpC4ERbEUlbE_bEES5_RKT_RKT0_
FN:6046,_ZN5Catch5clara6detail13LambdaInvokerINS1_11BasicResultINS1_15ParseResultTypeEEEE6invokeIZNS_21makeCommandLineParserERNS_10ConfigDataEEUlRKNSt7__cxx1112basic_stringIcSt11char_traitsIcESaIcEEEE1_SF_EES5_RKT_RKT0_
FN:6046,_ZN5Catch5clara6detail13LambdaInvokerINS1_11BasicResultINS1_15ParseResultTypeEEEE6invokeIZNS_21makeCommandLineParserERNS_10ConfigDataEEUlRKNSt7__cxx1112basic_stringIcSt11char_traitsIcESaIcEEEE2_SF_EES5_RKT_RKT0_
FN:6046,_ZN5Catch5clara6detail13LambdaInvokerINS1_11BasicResultINS1_15ParseResultTypeEEEE6invokeIZNS_21makeCommandLineParserERNS_10ConfigDataEEUlRKNSt7__cxx1112basic_stringIcSt11char_traitsIcESaIcEEEE0_SF_EES5_RKT_RKT0_
FN:6046,_ZN5Catch5clara6detail13LambdaInvokerINS1_11BasicResultINS1_15ParseResultTypeEEEE6invokeIZNS_21makeCommandLineParserERNS_10ConfigDataEEUlRKNSt7__cxx1112basic_stringIcSt11char_traitsIcESaIcEEEE3_SF_EES5_RKT_RKT0_
FN:6054,_ZN5Catch5clara6detail13LambdaInvokerIvE6invokeIZNS_21makeCommandLineParserERNS_10ConfigDataEEUlbE6_bEENS1_11BasicResultINS1_15ParseResultTypeEEERKT_RKT0_
FN:6054,_ZN5Catch5clara6detail13LambdaInvokerIvE6invokeIZNS_21makeCommandLineParserERNS_10ConfigDataEEUliE7_iEENS1_11BasicResultINS1_15ParseResultTypeEEERKT_RKT0_
FN:6054,_ZN5Catch5clara6detail13LambdaInvokerIvE6invokeIZNS_21makeCommandLineParserERNS_10ConfigDataEEUlbE8_bEENS1_11BasicResultINS1_15ParseResultTypeEEERKT_RKT0_
FN:6061,_ZN5Catch5clara6detail12invokeLambdaINSt7__cxx1112basic_stringIcSt11char_traitsIcESaIcEEEZNS_21makeCommandLineParserERNS_10ConfigDataEEUlRKS8_E1_EENS1_11BasicResultINS1_15ParseResultTypeEEERKT0_SC_
FN:6061,_ZN5Catch5clara6detail12invokeLambdaINSt7__cxx1112basic_stringIcSt11char_traitsIcESaIcEEEZNS_21makeCommandLineParserERNS_10ConfigDataEEUlRKS8_E3_EENS1_11BasicResultINS1_15ParseResultTypeEEERKT0_SC_
FN:6061,_ZN5Catch5clara6detail12invokeLambdaINSt7__cxx1112basic_stringIcSt11char_traitsIcESaIcEEEZNS_21makeCommandLineParserERNS_10ConfigDataEEUlRKS8_E_EENS1_11BasicResultINS1_15ParseResultTypeEEERKT0_SC_
FN:6061,_ZN5Catch5clara6detail12invokeLambdaIiZNS_21makeCommandLineParserERNS_10ConfigDataEEUliE7_EENS1_11BasicResultINS1_15ParseResultTypeEEERKT0_RKNSt7__cxx1112basic_stringIcSt11char_traitsIcESaIcEEE
FN:6061,_ZN5Catch5clara6detail12invokeLambdaINSt7__cxx1112basic_stringIcSt11char_traitsIcESaIcEEEZNS_21makeCommandLineParserERNS_10ConfigDataEEUlRKS8_E4_EENS1_11BasicResultINS1_15ParseResultTypeEEERKT0_SC_
FN:6061,_ZN5Catch5clara6detail12invokeLambdaINSt7__cxx1112basic_stringIcSt11char_traitsIcESaIcEEEZNS_21makeCommandLineParserERNS_10ConfigDataEEUlRKS8_E0_EENS1_11BasicResultINS1_15ParseResultTypeEEERKT0_SC_
FN:6061,_ZN5Catch5clara6detail12invokeLambdaINSt7__cxx1112basic_stringIcSt11char_traitsIcESaIcEEEZNS_21makeCommandLineParserERNS_10ConfigDataEEUlRKS8_E2_EENS1_11BasicResultINS1_15ParseResultTypeEEERKT0_SC_
FN:6061,_ZN5Catch5clara6detail12invokeLambdaINSt7__cxx1112basic_stringIcSt11char_traitsIcESaIcEEEZNS_21makeCommandLineParserERNS_10ConfigDataEEUlRKS8_E5_EENS1_11BasicResultINS1_15ParseResultTypeEEERKT0_SC_
FN:6061,_ZN5Catch5clara6detail12invokeLambdaIbZNS_21makeCommandLineParserERNS_10ConfigDataEEUlbE8_EENS1_11BasicResultINS1_15ParseResultTypeEEERKT0_RKNSt7__cxx1112basic_stringIcSt11char_traitsIcESaIcEEE
FN:6070,_ZN5Catch5clara6detail11BoundLambdaIZNS_21makeCommandLineParserERNS_10ConfigDataEEUlRKNSt7__cxx1112basic_stringIcSt11char_traitsIcESaIcEEEE3_ED0Ev
FN:6070,_ZN5Catch5clara6detail11BoundLambdaIZNS_21makeCommandLineParserERNS_10ConfigDataEEUlRKNSt7__cxx1112basic_stringIcSt11char_traitsIcESaIcEEEE1_ED2Ev
FN:6070,_ZN5Catch5clara6detail11BoundLambdaIZNS_21makeCommandLineParserERNS_10ConfigDataEEUlRKNSt7__cxx1112basic_stringIcSt11char_traitsIcESaIcEEEE1_ED0Ev
FN:6070,_ZN5Catch5clara6detail11BoundLambdaIZNS_21makeCommandLineParserERNS_10ConfigDataEEUlRKNSt7__cxx1112basic_stringIcSt11char_traitsIcESaIcEEEE0_ED0Ev
FN:6070,_ZN5Catch5clara6detail11BoundLambdaIZNS_21makeCommandLineParserERNS_10ConfigDataEEUlRKNSt7__cxx1112basic_stringIcSt11char_traitsIcESaIcEEEE4_ED2Ev
FN:6070,_ZN5Catch5clara6detail11BoundLambdaIZNS_21makeCommandLineParserERNS_10ConfigDataEEUlRKNSt7__cxx1112basic_stringIcSt11char_traitsIcESaIcEEEE3_ED2Ev
FN:6070,_ZN5Catch5clara6detail11BoundLambdaIZNS_21makeCommandLineParserERNS_10ConfigDataEEUlRKNSt7__cxx1112basic_stringIcSt11char_traitsIcESaIcEEEE0_ED2Ev
FN:6070,_ZN5Catch5clara6detail11BoundLambdaIZNS_21makeCommandLineParserERNS_10ConfigDataEEUlbE8_ED0Ev
FN:6070,_ZN5Catch5clara6detail11BoundLambdaIZNS_21makeCommandLineParserERNS_10ConfigDataEEUlRKNSt7__cxx1112basic_stringIcSt11char_traitsIcESaIcEEEE2_ED0Ev
FN:6070,_ZN5Catch5clara6detail11BoundLambdaIZNS_21makeCommandLineParserERNS_10ConfigDataEEUlRKNSt7__cxx1112basic_stringIcSt11char_traitsIcESaIcEEEE5_ED2Ev
FN:6070,_ZN5Catch5clara6detail11BoundLambdaIZNS_21makeCommandLineParserERNS_10ConfigDataEEUliE7_ED0Ev
FN:6070,_ZN5Catch5clara6detail11BoundLambdaIZNS_21makeCommandLineParserERNS_10ConfigDataEEUliE7_ED2Ev
FN:6070,_ZN5Catch5clara6detail11BoundLambdaIZNS_21makeCommandLineParserERNS_10ConfigDataEEUlRKNSt7__cxx1112basic_stringIcSt11char_traitsIcESaIcEEEE5_ED0Ev
FN:6070,_ZN5Catch5clara6detail11BoundLambdaIZNS_21makeCommandLineParserERNS_10ConfigDataEEUlRKNSt7__cxx1112basic_stringIcSt11char_traitsIcESaIcEEEE2_ED2Ev
FN:6070,_ZN5Catch5clara6detail11BoundLambdaIZNS_21makeCommandLineParserERNS_10ConfigDataEEUlRKNSt7__cxx1112basic_stringIcSt11char_traitsIcESaIcEEEE_ED2Ev
FN:6070,_ZN5Catch5clara6detail11BoundLambdaIZNS_21makeCommandLineParserERNS_10ConfigDataEEUlRKNSt7__cxx1112basic_stringIcSt11char_traitsIcESaIcEEEE_ED0Ev
FN:6070,_ZN5Catch5clara6detail11BoundLambdaIZNS_21makeCommandLineParserERNS_10ConfigDataEEUlbE8_ED2Ev
FN:6070,_ZN5Catch5clara6detail11BoundLambdaIZNS_21makeCommandLineParserERNS_10ConfigDataEEUlRKNSt7__cxx1112basic_stringIcSt11char_traitsIcESaIcEEEE4_ED0Ev
FN:6074,_ZN5Catch5clara6detail11BoundLambdaIZNS_21makeCommandLineParserERNS_10ConfigDataEEUlRKNSt7__cxx1112basic_stringIcSt11char_traitsIcESaIcEEEE3_EC2ERKSD_
FN:6074,_ZN5Catch5clara6detail11BoundLambdaIZNS_21makeCommandLineParserERNS_10ConfigDataEEUlbE8_EC2ERKS5_
FN:6074,_ZN5Catch5clara6detail11BoundLambdaIZNS_21makeCommandLineParserERNS_10ConfigDataEEUlRKNSt7__cxx1112basic_stringIcSt11char_traitsIcESaIcEEEE1_EC2ERKSD_
FN:6074,_ZN5Catch5clara6detail11BoundLambdaIZNS_21makeCommandLineParserERNS_10ConfigDataEEUlRKNSt7__cxx1112basic_stringIcSt11char_traitsIcESaIcEEEE_EC2ERKSD_
FN:6074,_ZN5Catch5clara6detail11BoundLambdaIZNS_21makeCommandLineParserERNS_10ConfigDataEEUliE7_EC2ERKS5_
FN:6074,_ZN5Catch5clara6detail11BoundLambdaIZNS_21makeCommandLineParserERNS_10ConfigDataEEUlRKNSt7__cxx1112basic_stringIcSt11char_traitsIcESaIcEEEE5_EC2ERKSD_
FN:6074,_ZN5Catch5clara6detail11BoundLambdaIZNS_21makeCommandLineParserERNS_10ConfigDataEEUlRKNSt7__cxx1112basic_stringIcSt11char_traitsIcESaIcEEEE0_EC2ERKSD_
FN:6074,_ZN5Catch5clara6detail11BoundLambdaIZNS_21makeCommandLineParserERNS_10ConfigDataEEUlRKNSt7__cxx1112basic_stringIcSt11char_traitsIcESaIcEEEE2_EC2ERKSD_
FN:6074,_ZN5Catch5clara6detail11BoundLambdaIZNS_21makeCommandLineParserERNS_10ConfigDataEEUlRKNSt7__cxx1112basic_stringIcSt11char_traitsIcESaIcEEEE4_EC2ERKSD_
FN:6076,_ZN5Catch5clara6detail11BoundLambdaIZNS_21makeCommandLineParserERNS_10ConfigDataEEUlRKNSt7__cxx1112basic_stringIcSt11char_traitsIcESaIcEEEE2_E8setValueESC_
FN:6076,_ZN5Catch5clara6detail11BoundLambdaIZNS_21makeCommandLineParserERNS_10ConfigDataEEUlRKNSt7__cxx1112basic_stringIcSt11char_traitsIcESaIcEEEE4_E8setValueESC_
FN:6076,_ZN5Catch5clara6detail11BoundLambdaIZNS_21makeCommandLineParserERNS_10ConfigDataEEUlbE8_E8setValueERKNSt7__cxx1112basic_stringIcSt11char_traitsIcESaIcEEE
FN:6076,_ZN5Catch5clara6detail11BoundLambdaIZNS_21makeCommandLineParserERNS_10ConfigDataEEUlRKNSt7__cxx1112basic_stringIcSt11char_traitsIcESaIcEEEE5_E8setValueESC_
FN:6076,_ZN5Catch5clara6detail11BoundLambdaIZNS_21makeCommandLineParserERNS_10ConfigDataEEUliE7_E8setValueERKNSt7__cxx1112basic_stringIcSt11char_traitsIcESaIcEEE
FN:6076,_ZN5Catch5clara6detail11BoundLambdaIZNS_21makeCommandLineParserERNS_10ConfigDataEEUlRKNSt7__cxx1112basic_stringIcSt11char_traitsIcESaIcEEEE0_E8setValueESC_
FN:6076,_ZN5Catch5clara6detail11BoundLambdaIZNS_21makeCommandLineParserERNS_10ConfigDataEEUlRKNSt7__cxx1112basic_stringIcSt11char_traitsIcESaIcEEEE_E8setValueESC_
FN:6076,_ZN5Catch5clara6detail11BoundLambdaIZNS_21makeCommandLineParserERNS_10ConfigDataEEUlRKNSt7__cxx1112basic_stringIcSt11char_traitsIcESaIcEEEE1_E8setValueESC_
FN:6076,_ZN5Catch5clara6detail11BoundLambdaIZNS_21makeCommandLineParserERNS_10ConfigDataEEUlRKNSt7__cxx1112basic_stringIcSt11char_traitsIcESaIcEEEE3_E8setValueESC_
FN:6082,_ZN5Catch5clara6detail15BoundFlagLambdaIZNS_21makeCommandLineParserERNS_10ConfigDataEEUlbE6_ED0Ev
FN:6082,_ZN5Catch5clara6detail15BoundFlagLambdaIZNS_21makeCommandLineParserERNS_10ConfigDataEEUlbE6_ED2Ev
FN:6082,_ZN5Catch5clara6detail15BoundFlagLambdaIZNS1_4HelpC4ERbEUlbE_ED0Ev
FN:6082,_ZN5Catch5clara6detail15BoundFlagLambdaIZNS1_4HelpC4ERbEUlbE_ED2Ev
FN:6088,_ZN5Catch5clara6detail15BoundFlagLambdaIZNS1_4HelpC4ERbEUlbE_EC2ERKS5_
FN:6088,_ZN5Catch5clara6detail15BoundFlagLambdaIZNS_21makeCommandLineParserERNS_10ConfigDataEEUlbE6_EC2ERKS5_
FN:6090,_ZN5Catch5clara6detail15BoundFlagLambdaIZNS1_4HelpC4ERbEUlbE_E7setFlagEb
FN:6090,_ZN5Catch5clara6detail15BoundFlagLambdaIZNS_21makeCommandLineParserERNS_10ConfigDataEEUlbE6_E7setFlagEb
FN:6099,_ZN5Catch5clara6detail10ParserBaseC2ERKS2_
FN:6099,_ZN5Catch5clara6detail10ParserBaseC2Ev
FN:6099,_ZN5Catch5clara6detail10ParserBaseaSERKS2_
FN:6101,_ZN5Catch5clara6detail10ParserBaseD2Ev
FN:6101,_ZN5Catch5clara6detail10ParserBaseD0Ev
FN:6102,_ZNK5Catch5clara6detail10ParserBase8validateEv
FN:6104,_ZNK5Catch5clara6detail10ParserBase11cardinalityEv
FN:6106,_ZNK5Catch5clara6detail10ParserBase5parseERKNS1_4ArgsE
FN:6112,_ZN5Catch5clara6detail20ComposableParserImplINS1_3ArgEED0Ev
FN:6112,_ZN5Catch5clara6detail20ComposableParserImplINS1_7ExeNameEED0Ev
FN:6112,_ZN5Catch5clara6detail20ComposableParserImplINS1_7ExeNameEEaSEOS4_
FN:6112,_ZN5Catch5clara6detail20ComposableParserImplINS1_3OptEEC2ERKS4_
FN:6112,_ZN5Catch5clara6detail20ComposableParserImplINS1_3OptEEaSERKS4_
FN:6112,_ZN5Catch5clara6detail20ComposableParserImplINS1_3OptEED0Ev
FN:6112,_ZN5Catch5clara6detail20ComposableParserImplINS1_3ArgEEC2EOS4_
FN:6112,_ZN5Catch5clara6detail20ComposableParserImplINS1_3ArgEED2Ev
FN:6112,_ZN5Catch5clara6detail20ComposableParserImplINS1_3ArgEEC2ERKS4_
FN:6112,_ZN5Catch5clara6detail20ComposableParserImplINS1_3OptEEC2EOS4_
FN:6112,_ZN5Catch5clara6detail20ComposableParserImplINS1_3OptEED2Ev
FN:6112,_ZN5Catch5clara6detail20ComposableParserImplINS1_3ArgEEaSERKS4_
FN:6112,_ZN5Catch5clara6detail20ComposableParserImplINS1_3ArgEEC2Ev
FN:6112,_ZN5Catch5clara6detail20ComposableParserImplINS1_7ExeNameEEC2Ev
FN:6112,_ZN5Catch5clara6detail20ComposableParserImplINS1_7ExeNameEEaSERKS4_
FN:6112,_ZN5Catch5clara6detail20ComposableParserImplINS1_7ExeNameEED2Ev
FN:6112,_ZN5Catch5clara6detail20ComposableParserImplINS1_3OptEEC2Ev
FN:6112,_ZN5Catch5clara6detail20ComposableParserImplINS1_7ExeNameEEC2ERKS4_
FN:6123,_ZN5Catch5clara6detail13ParserRefImplINS1_3ArgEED2Ev
FN:6123,_ZN5Catch5clara6detail13ParserRefImplINS1_3OptEEC2ERKS4_
FN:6123,_ZN5Catch5clara6detail13ParserRefImplINS1_3ArgEEC2EOS4_
FN:6123,_ZN5Catch5clara6detail13ParserRefImplINS1_3ArgEEC2ERKS4_
FN:6123,_ZN5Catch5clara6detail13ParserRefImplINS1_3OptEEaSERKS4_
FN:6123,_ZN5Catch5clara6detail13ParserRefImplINS1_3ArgEEaSERKS4_
FN:6123,_ZN5Catch5clara6detail13ParserRefImplINS1_3OptEED2Ev
FN:6123,_ZN5Catch5clara6detail13ParserRefImplINS1_3ArgEED0Ev
FN:6123,_ZN5Catch5clara6detail13ParserRefImplINS1_3OptEEC2EOS4_
FN:6123,_ZN5Catch5clara6detail13ParserRefImplINS1_3OptEED0Ev
FN:6130,_ZN5Catch5clara6detail13ParserRefImplINS1_3OptEEC2ERKSt10shared_ptrINS1_8BoundRefEE
FN:6134,_ZN5Catch5clara6detail13ParserRefImplINS1_3OptEEC2IiEERT_RKNSt7__cxx1112basic_stringIcSt11char_traitsIcESaIcEEE
FN:6134,_ZN5Catch5clara6detail13ParserRefImplINS1_3OptEEC2ISt6vectorINSt7__cxx1112basic_stringIcSt11char_traitsIcESaIcEEESaISC_EEEERT_RKSC_
FN:6134,_ZN5Catch5clara6detail13ParserRefImplINS1_3OptEEC2INSt7__cxx1112basic_stringIcSt11char_traitsIcESaIcEEEEERT_RKSB_
FN:6134,_ZN5Catch5clara6detail13ParserRefImplINS1_3ArgEEC2ISt6vectorINSt7__cxx1112basic_stringIcSt11char_traitsIcESaIcEEESaISC_EEEERT_RKSC_
FN:6140,_ZN5Catch5clara6detail13ParserRefImplINS1_3OptEEC2IZNS_21makeCommandLineParserERNS_10ConfigDataEEUlRKNSt7__cxx1112basic_stringIcSt11char_traitsIcESaIcEEEE5_EERKT_SF_
FN:6140,_ZN5Catch5clara6detail13ParserRefImplINS1_3OptEEC2IZNS_21makeCommandLineParserERNS_10ConfigDataEEUlRKNSt7__cxx1112basic_stringIcSt11char_traitsIcESaIcEEEE1_EERKT_SF_
FN:6140,_ZN5Catch5clara6detail13ParserRefImplINS1_3OptEEC2IZNS_21makeCommandLineParserERNS_10ConfigDataEEUlRKNSt7__cxx1112basic_stringIcSt11char_traitsIcESaIcEEEE2_EERKT_SF_
FN:6140,_ZN5Catch5clara6detail13ParserRefImplINS1_3OptEEC2IZNS_21makeCommandLineParserERNS_10ConfigDataEEUlRKNSt7__cxx1112basic_stringIcSt11char_traitsIcESaIcEEEE0_EERKT_SF_
FN:6140,_ZN5Catch5clara6detail13ParserRefImplINS1_3OptEEC2IZNS_21makeCommandLineParserERNS_10ConfigDataEEUlRKNSt7__cxx1112basic_stringIcSt11char_traitsIcESaIcEEEE3_EERKT_SF_
FN:6140,_ZN5Catch5clara6detail13ParserRefImplINS1_3OptEEC2IZNS_21makeCommandLineParserERNS_10ConfigDataEEUlRKNSt7__cxx1112basic_stringIcSt11char_traitsIcESaIcEEEE_EERKT_SF_
FN:6140,_ZN5Catch5clara6detail13ParserRefImplINS1_3OptEEC2IZNS_21makeCommandLineParserERNS_10ConfigDataEEUlbE8_EERKT_RKNSt7__cxx1112basic_stringIcSt11char_traitsIcESaIcEEE
FN:6140,_ZN5Catch5clara6detail13ParserRefImplINS1_3OptEEC2IZNS_21makeCommandLineParserERNS_10ConfigDataEEUliE7_EERKT_RKNSt7__cxx1112basic_stringIcSt11char_traitsIcESaIcEEE
FN:6140,_ZN5Catch5clara6detail13ParserRefImplINS1_3OptEEC2IZNS_21makeCommandLineParserERNS_10ConfigDataEEUlRKNSt7__cxx1112basic_stringIcSt11char_traitsIcESaIcEEEE4_EERKT_SF_
FN:6145,_ZN5Catch5clara6detail13ParserRefImplINS1_3ArgEEclERKNSt7__cxx1112basic_stringIcSt11char_traitsIcESaIcEEE
FN:6145,_ZN5Catch5clara6detail13ParserRefImplINS1_3OptEEclERKNSt7__cxx1112basic_stringIcSt11char_traitsIcESaIcEEE
FN:6150,_ZN5Catch5clara6detail13ParserRefImplINS1_3OptEE8optionalEv
FN:6160,_ZNK5Catch5clara6detail13ParserRefImplINS1_3ArgEE10isOptionalEv
FN:6164,_ZNK5Catch5clara6detail13ParserRefImplINS1_3ArgEE11cardinalityEv
FN:6164,_ZNK5Catch5clara6detail13ParserRefImplINS1_3OptEE11cardinalityEv
FN:6171,_ZNK5Catch5clara6detail13ParserRefImplINS1_3ArgEE4hintB5cxx11Ev
FN:6174,_ZN5Catch5clara6detail7ExeNameD0Ev
FN:6174,_ZN5Catch5clara6detail7ExeNameaSEOS2_
FN:6174,_ZN5Catch5clara6detail7ExeNameC2ERKS2_
FN:6174,_ZN5Catch5clara6detail7ExeNameD2Ev
FN:6174,_ZN5Catch5clara6detail7ExeNameaSERKS2_
FN:6184,_ZN5Catch5clara6detail7ExeNameC2Ev
FN:6186,_ZN5Catch5clara6detail7ExeNameC2ERNSt7__cxx1112basic_stringIcSt11char_traitsIcESaIcEEE
FN:6196,_ZNK5Catch5clara6detail7ExeName5parseERKNSt7__cxx1112basic_stringIcSt11char_traitsIcESaIcEEERKNS1_11TokenStreamE
FN:6200,_ZNK5Catch5clara6detail7ExeName4nameB5cxx11Ev
FN:6201,_ZN5Catch5clara6detail7ExeName3setERKNSt7__cxx1112basic_stringIcSt11char_traitsIcESaIcEEE
FN:6216,_ZN5Catch5clara6detail3ArgC2ERKS2_
FN:6216,_ZN5Catch5clara6detail3ArgC2EOS2_
FN:6216,_ZN5Catch5clara6detail3ArgD2Ev
FN:6216,_ZN5Catch5clara6detail3ArgD0Ev
FN:6216,_ZN5Catch5clara6detail3ArgaSERKS2_
FN:6218,_ZN5Catch5clara6detail3ArgCI2NS1_13ParserRefImplIS2_EEISt6vectorINSt7__cxx1112basic_stringIcSt11char_traitsIcESaIcEEESaISC_EEEERT_RKSC_
FN:6220,_ZNK5Catch5clara6detail3Arg5parseERKNSt7__cxx1112basic_stringIcSt11char_traitsIcESaIcEEERKNS1_11TokenStreamE
FN:6241,_ZN5Catch5clara6detail12normaliseOptERKNSt7__cxx1112basic_stringIcSt11char_traitsIcESaIcEEE
FN:6250,_ZN5Catch5clara6detail3OptaSERKS2_
FN:6250,_ZN5Catch5clara6detail3OptC2ERKS2_
FN:6250,_ZN5Catch5clara6detail3OptD0Ev
FN:6250,_ZN5Catch5clara6detail3OptD2Ev
FN:6250,_ZN5Catch5clara6detail3OptC2EOS2_
FN:6256,_ZN5Catch5clara6detail3OptC2IZNS_21makeCommandLineParserERNS_10ConfigDataEEUlbE6_EERKT_
FN:6256,_ZN5Catch5clara6detail3OptC2IZNS1_4HelpC4ERbEUlbE_EERKT_
FN:6258,_ZN5Catch5clara6detail3OptC2ERb
FN:6261,_ZN5Catch5clara6detail3OptC2IZNS_21makeCommandLineParserERNS_10ConfigDataEEUlRKNSt7__cxx1112basic_stringIcSt11char_traitsIcESaIcEEEE1_EERKT_SD_
FN:6261,_ZN5Catch5clara6detail3OptC2IZNS_21makeCommandLineParserERNS_10ConfigDataEEUlRKNSt7__cxx1112basic_stringIcSt11char_traitsIcESaIcEEEE4_EERKT_SD_
FN:6261,_ZN5Catch5clara6detail3OptC2IZNS_21makeCommandLineParserERNS_10ConfigDataEEUliE7_EERKT_RKNSt7__cxx1112basic_stringIcSt11char_traitsIcESaIcEEE
FN:6261,_ZN5Catch5clara6detail3OptC2IZNS_21makeCommandLineParserERNS_10ConfigDataEEUlbE8_EERKT_RKNSt7__cxx1112basic_stringIcSt11char_traitsIcESaIcEEE
FN:6261,_ZN5Catch5clara6detail3OptC2IZNS_21makeCommandLineParserERNS_10ConfigDataEEUlRKNSt7__cxx1112basic_stringIcSt11char_traitsIcESaIcEEEE3_EERKT_SD_
FN:6261,_ZN5Catch5clara6detail3OptC2IZNS_21makeCommandLineParserERNS_10ConfigDataEEUlRKNSt7__cxx1112basic_stringIcSt11char_traitsIcESaIcEEEE2_EERKT_SD_
FN:6261,_ZN5Catch5clara6detail3OptC2IZNS_21makeCommandLineParserERNS_10ConfigDataEEUlRKNSt7__cxx1112basic_stringIcSt11char_traitsIcESaIcEEEE_EERKT_SD_
FN:6261,_ZN5Catch5clara6detail3OptC2IZNS_21makeCommandLineParserERNS_10ConfigDataEEUlRKNSt7__cxx1112basic_stringIcSt11char_traitsIcESaIcEEEE0_EERKT_SD_
FN:6261,_ZN5Catch5clara6detail3OptC2IZNS_21makeCommandLineParserERNS_10ConfigDataEEUlRKNSt7__cxx1112basic_stringIcSt11char_traitsIcESaIcEEEE5_EERKT_SD_
FN:6264,_ZN5Catch5clara6detail3OptC2INSt7__cxx1112basic_stringIcSt11char_traitsIcESaIcEEEEERT_RKS9_
FN:6264,_ZN5Catch5clara6detail3OptC2ISt6vectorINSt7__cxx1112basic_stringIcSt11char_traitsIcESaIcEEESaISA_EEEERT_RKSA_
FN:6264,_ZN5Catch5clara6detail3OptC2IiEERT_RKNSt7__cxx1112basic_stringIcSt11char_traitsIcESaIcEEE
FN:6266,_ZN5Catch5clara6detail3OptixERKNSt7__cxx1112basic_stringIcSt11char_traitsIcESaIcEEE
FN:6271,_ZNK5Catch5clara6detail3Opt14getHelpColumnsEv
FN:6286,_ZNK5Catch5clara6detail3Opt7isMatchERKNSt7__cxx1112basic_stringIcSt11char_traitsIcESaIcEEE
FN:6297,_ZNK5Catch5clara6detail3Opt5parseERKNSt7__cxx1112basic_stringIcSt11char_traitsIcESaIcEEERKNS1_11TokenStreamE
FN:6333,_ZNK5Catch5clara6detail3Opt8validateEv
FN:6351,_ZN5Catch5clara6detail4HelpD0Ev
FN:6351,_ZN5Catch5clara6detail4HelpD2Ev
FN:6352,_ZN5Catch5clara6detail4HelpC2ERb
FN:6353,_ZZN5Catch5clara6detail4HelpC4ERbENKUlbE_clEb
FN:6365,_ZN5Catch5clara6detail6ParserC2ERKS2_
FN:6365,_ZN5Catch5clara6detail6ParseraSEOS2_
FN:6365,_ZN5Catch5clara6detail6ParserC2Ev
FN:6365,_ZN5Catch5clara6detail6ParserD0Ev
FN:6365,_ZN5Catch5clara6detail6ParserD2Ev
FN:6365,_ZN5Catch5clara6detail6ParseraSERKS2_
FN:6371,_ZN5Catch5clara6detail6ParseroRERKNS1_7ExeNameE
FN:6376,_ZN5Catch5clara6detail6ParseroRERKNS1_3ArgE
FN:6381,_ZN5Catch5clara6detail6ParseroRERKNS1_3OptE
FN:6393,_ZNK5Catch5clara6detail6ParserorINS1_3OptEEES2_RKT_
FN:6393,_ZNK5Catch5clara6detail6ParserorINS1_7ExeNameEEES2_RKT_
FN:6393,_ZNK5Catch5clara6detail6ParserorINS1_3ArgEEES2_RKT_
FN:6393,_ZNK5Catch5clara6detail6ParserorINS1_4HelpEEES2_RKT_
FN:6403,_ZNK5Catch5clara6detail6Parser14getHelpColumnsEv
FN:6412,_ZNK5Catch5clara6detail6Parser13writeToStreamERSo
FN:6453,_ZN5Catch5clara6detaillsERSoRKNS1_6ParserE
FN:6458,_ZNK5Catch5clara6detail6Parser8validateEv
FN:6474,_ZNK5Catch5clara6detail6Parser5parseERKNSt7__cxx1112basic_stringIcSt11char_traitsIcESaIcEEERKNS1_11TokenStreamE
FN:6523,_ZNK5Catch5clara6detail20ComposableParserImplINS1_7ExeNameEEorINS1_4HelpEEENS1_6ParserERKT_
FN:6578,_ZN5Catch21makeCommandLineParserERNS_10ConfigDataE
FN:6582,_ZZN5Catch21makeCommandLineParserERNS_10ConfigDataEENKUlRKNSt7__cxx1112basic_stringIcSt11char_traitsIcESaIcEEEE_clES9_
FN:6583,_ZZZN5Catch21makeCommandLineParserERNS_10ConfigDataEENKUlRKNSt7__cxx1112basic_stringIcSt11char_traitsIcESaIcEEEE_clES9_ENKUlvE_clEv
FN:6598,_ZZN5Catch21makeCommandLineParserERNS_10ConfigDataEENKUlRKNSt7__cxx1112basic_stringIcSt11char_traitsIcESaIcEEEE0_clES9_
FN:6614,_ZZN5Catch21makeCommandLineParserERNS_10ConfigDataEENKUlRKNSt7__cxx1112basic_stringIcSt11char_traitsIcESaIcEEEE1_clES9_
FN:6625,_ZZN5Catch21makeCommandLineParserERNS_10ConfigDataEENKUlRKNSt7__cxx1112basic_stringIcSt11char_traitsIcESaIcEEEE2_clES9_
FN:6631,_ZZN5Catch21makeCommandLineParserERNS_10ConfigDataEENKUlRKNSt7__cxx1112basic_stringIcSt11char_traitsIcESaIcEEEE3_clES9_
FN:6644,_ZZN5Catch21makeCommandLineParserERNS_10ConfigDataEENKUlRKNSt7__cxx1112basic_stringIcSt11char_traitsIcESaIcEEEE4_clES9_
FN:6656,_ZZN5Catch21makeCommandLineParserERNS_10ConfigDataEENKUlRKNSt7__cxx1112basic_stringIcSt11char_traitsIcESaIcEEEE5_clES9_
FN:6699,_ZZN5Catch21makeCommandLineParserERNS_10ConfigDataEENKUlbE6_clEb
FN:6702,_ZZN5Catch21makeCommandLineParserERNS_10ConfigDataEENKUliE7_clEi
FN:6708,_ZZN5Catch21makeCommandLineParserERNS_10ConfigDataEENKUlbE8_clEb
FN:6763,_ZNK5Catch14SourceLineInfo5emptyEv
FN:6766,_ZNK5Catch14SourceLineInfoeqERKS0_
FN:6769,_ZNK5Catch14SourceLineInfoltERKS0_
FN:6773,_ZN5CatchlsERSoRKNS_14SourceLineInfoE
FN:6782,_ZNK5Catch13StreamEndStoppsB5cxx11Ev
FN:6809,_ZN5Catch6ConfigC2ERKNS_10ConfigDataE
FN:6825,_ZNK5Catch6Config11getFilenameB5cxx11Ev
FN:6829,_ZNK5Catch6Config9listTestsEv
FN:6830,_ZNK5Catch6Config17listTestNamesOnlyEv
FN:6831,_ZNK5Catch6Config8listTagsEv
FN:6832,_ZNK5Catch6Config13listReportersEv
FN:6834,_ZNK5Catch6Config14getProcessNameB5cxx11Ev
FN:6835,_ZNK5Catch6Config15getReporterNameB5cxx11Ev
FN:6837,_ZNK5Catch6Config14getTestsOrTagsB5cxx11Ev
FN:6838,_ZNK5Catch6Config16getSectionsToRunB5cxx11Ev
FN:6840,_ZNK5Catch6Config8testSpecEv
FN:6841,_ZNK5Catch6Config14hasTestFiltersEv
FN:6843,_ZNK5Catch6Config8showHelpEv
FN:6846,_ZNK5Catch6Config11allowThrowsEv
FN:6847,_ZNK5Catch6Config6streamEv
FN:6848,_ZNK5Catch6Config4nameB5cxx11Ev
FN:6849,_ZNK5Catch6Config24includeSuccessfulResultsEv
FN:6850,_ZNK5Catch6Config26warnAboutMissingAssertionsEv
FN:6851,_ZNK5Catch6Config16warnAboutNoTestsEv
FN:6852,_ZNK5Catch6Config13showDurationsEv
FN:6853,_ZNK5Catch6Config8runOrderEv
FN:6854,_ZNK5Catch6Config7rngSeedEv
FN:6855,_ZNK5Catch6Config27benchmarkResolutionMultipleEv
FN:6856,_ZNK5Catch6Config9useColourEv
FN:6857,_ZNK5Catch6Config16shouldDebugBreakEv
FN:6858,_ZNK5Catch6Config10abortAfterEv
FN:6859,_ZNK5Catch6Config14showInvisiblesEv
FN:6860,_ZNK5Catch6Config9verbosityEv
FN:6862,_ZN5Catch6Config10openStreamEv
FN:6896,_ZN5Catch12_GLOBAL__N_111IColourImplD2Ev
FN:6900,_ZN5Catch12_GLOBAL__N_112NoColourImplD2Ev
FN:6900,_ZN5Catch12_GLOBAL__N_112NoColourImplD0Ev
FN:6901,_ZN5Catch12_GLOBAL__N_112NoColourImpl3useENS_6Colour4CodeE
FN:6903,_ZN5Catch12_GLOBAL__N_112NoColourImpl8instanceEv
FN:6996,_ZN5Catch12_GLOBAL__N_115PosixColourImplD0Ev
FN:6996,_ZN5Catch12_GLOBAL__N_115PosixColourImplD2Ev
FN:6998,_ZN5Catch12_GLOBAL__N_115PosixColourImpl3useENS_6Colour4CodeE
FN:7019,_ZN5Catch12_GLOBAL__N_115PosixColourImpl8instanceEv
FN:7025,_ZN5Catch12_GLOBAL__N_115PosixColourImpl9setColourEPKc
FN:7030,_ZN5Catch12_GLOBAL__N_119useColourOnPlatformEv
FN:7042,_ZN5Catch12_GLOBAL__N_122platformColourInstanceEv
FN:7072,_ZN5Catch6ColourC2ENS0_4CodeE
FN:7073,_ZN5Catch6ColourC2EOS0_
FN:7077,_ZN5Catch6ColouraSEOS0_
FN:7083,_ZN5Catch6ColourD2Ev
FN:7085,_ZN5Catch6Colour3useENS0_4CodeE
FN:7090,_ZN5CatchlsERSoRKNS_6ColourE
FN:7105,_ZN5Catch7ContextC2Ev
FN:7105,_ZN5Catch7ContextD2Ev
FN:7105,_ZN5Catch7ContextD0Ev
FN:7108,_ZN5Catch7Context16getResultCaptureEv
FN:7111,_ZN5Catch7Context9getRunnerEv
FN:7115,_ZNK5Catch7Context9getConfigEv
FN:7122,_ZN5Catch7Context16setResultCaptureEPNS_14IResultCaptureE
FN:7125,_ZN5Catch7Context9setRunnerEPNS_7IRunnerE
FN:7128,_ZN5Catch7Context9setConfigERKSt10shared_ptrIKNS_7IConfigEE
FN:7142,_ZN5Catch15IMutableContext13createContextEv
FN:7147,_ZN5Catch14cleanUpContextEv
FN:7178,_ZN5Catch19writeToDebugConsoleERKNSt7__cxx1112basic_stringIcSt11char_traitsIcESaIcEEE
FN:7250,_ZN5Catch16isDebuggerActiveEv
FN:7294,_ZN5Catch29formatReconstructedExpressionERSoRKNSt7__cxx1112basic_stringIcSt11char_traitsIcESaIcEEENS_9StringRefES8_
FN:7309,_ZN5Catch10ErrnoGuardC2Ev
FN:7310,_ZN5Catch10ErrnoGuardD2Ev
FN:7323,_ZN5Catch27ExceptionTranslatorRegistryC2Ev
FN:7342,_ZN5Catch27ExceptionTranslatorRegistryD0Ev
FN:7342,_ZN5Catch27ExceptionTranslatorRegistryD2Ev
FN:7345,_ZN5Catch27ExceptionTranslatorRegistry18registerTranslatorEPKNS_20IExceptionTranslatorE
FN:7349,_ZNK5Catch27ExceptionTranslatorRegistry24translateActiveExceptionB5cxx11Ev
FN:7391,_ZNK5Catch27ExceptionTranslatorRegistry14tryTranslatorsB5cxx11Ev
FN:7410,_ZN12_GLOBAL__N_111reportFatalEPKc
FN:7496,_ZN5Catch21FatalConditionHandler12handleSignalEi
FN:7509,_ZN5Catch21FatalConditionHandlerC2Ev
FN:7525,_ZN5Catch21FatalConditionHandlerD2Ev
FN:7529,_ZN5Catch21FatalConditionHandler5resetEv
FN:7592,_ZN5Catch17ListeningReporterD0Ev
FN:7592,_ZN5Catch17ListeningReporterD2Ev
FN:7638,_ZN5Catch14ReporterConfigC2ERKSt10shared_ptrIKNS_7IConfigEE
FN:7641,_ZN5Catch14ReporterConfigC2ERKSt10shared_ptrIKNS_7IConfigEERSo
FN:7644,_ZNK5Catch14ReporterConfig6streamEv
FN:7645,_ZNK5Catch14ReporterConfig10fullConfigEv
FN:7647,_ZN5Catch11TestRunInfoC2ERKNSt7__cxx1112basic_stringIcSt11char_traitsIcESaIcEEE
FN:7649,_ZN5Catch9GroupInfoC2ERKNSt7__cxx1112basic_stringIcSt11char_traitsIcESaIcEEEmm
FN:7657,_ZN5Catch14AssertionStatsC2ERKNS_15AssertionResultERKSt6vectorINS_11MessageInfoESaIS5_EERKNS_6TotalsE
FN:7679,_ZN5Catch12SectionStatsC2ERKNS_11SectionInfoERKNS_6CountsEdb
FN:7691,_ZN5Catch13TestCaseStatsC2ERKNS_12TestCaseInfoERKNS_6TotalsERKNSt7__cxx1112basic_stringIcSt11char_traitsIcESaIcEEESE_b
FN:7705,_ZN5Catch14TestGroupStatsC2ERKNS_9GroupInfoERKNS_6TotalsEb
FN:7713,_ZN5Catch14TestGroupStatsC2ERKNS_9GroupInfoE
FN:7720,_ZN5Catch12TestRunStatsC2ERKNS_11TestRunInfoERKNS_6TotalsEb
FN:7730,_ZN5Catch18IStreamingReporter21fatalErrorEncounteredENS_9StringRefE
FN:7731,_ZNK5Catch18IStreamingReporter7isMultiEv
FN:7772,_ZN5Catch12LeakDetectorC2Ev
FN:7788,_ZN5Catch7TagInfoC2Ev
FN:7788,_ZN5Catch7TagInfoC2EOS0_
FN:7788,_ZN5Catch7TagInfoD2Ev
FN:7818,_ZN5Catch9listTestsERKNS_6ConfigE
FN:7852,_ZN5Catch18listTestsNamesOnlyERKNS_6ConfigE
FN:7869,_ZN5Catch7TagInfo3addERKNSt7__cxx1112basic_stringIcSt11char_traitsIcESaIcEEE
FN:7874,_ZNK5Catch7TagInfo3allB5cxx11Ev
FN:7881,_ZN5Catch8listTagsERKNS_6ConfigE
FN:7916,_ZN5Catch13listReportersERKNS_6ConfigE
FN:7938,_ZN5Catch4listERKNS_6ConfigE
FN:7959,_ZNK5Catch8Matchers4Impl18MatcherUntypedBase8toStringB5cxx11Ev
FN:7983,_ZN5Catch9to_stringIiEENSt7__cxx1112basic_stringIcSt11char_traitsIcESaIcEEERKT_
FN:8019,_ZN12_GLOBAL__N_19ConverterIfEC2Ef
FN:8028,_ZN12_GLOBAL__N_19ConverterIdEC2Ed
FN:8035,_ZN12_GLOBAL__N_17convertIfEENS_9ConverterIT_EES2_
FN:8035,_ZN12_GLOBAL__N_17convertIdEENS_9ConverterIT_EES2_
FN:8040,_ZN12_GLOBAL__N_115almostEqualUlpsIdEEbT_S1_i
FN:8040,_ZN12_GLOBAL__N_115almostEqualUlpsIfEEbT_S1_i
FN:8064,_ZN5Catch8Matchers8Floating16WithinAbsMatcherC2Edd
FN:8073,_ZNK5Catch8Matchers8Floating16WithinAbsMatcher5matchERKd
FN:8077,_ZNK5Catch8Matchers8Floating16WithinAbsMatcher8describeB5cxx11Ev
FN:8081,_ZN5Catch8Matchers8Floating17WithinUlpsMatcherC2EdiNS1_17FloatingPointKindE
FN:8088,_ZNK5Catch8Matchers8Floating17WithinUlpsMatcher5matchERKd
FN:8099,_ZNK5Catch8Matchers8Floating17WithinUlpsMatcher8describeB5cxx11Ev
FN:8105,_ZN5Catch8Matchers9WithinULPEdi
FN:8109,_ZN5Catch8Matchers9WithinULPEfi
FN:8113,_ZN5Catch8Matchers9WithinAbsEdd
FN:8123,_ZN5Catch8Matchers7Generic6Detail19finalizeDescriptionERKNSt7__cxx1112basic_stringIcSt11char_traitsIcESaIcEEE
FN:8140,_ZN5Catch8Matchers9StdString11CasedStringC2ERKNSt7__cxx1112basic_stringIcSt11char_traitsIcESaIcEEENS_13CaseSensitive6ChoiceE
FN:8144,_ZNK5Catch8Matchers9StdString11CasedString12adjustStringERKNSt7__cxx1112basic_stringIcSt11char_traitsIcESaIcEEE
FN:8149,_ZNK5Catch8Matchers9StdString11CasedString21caseSensitivitySuffixB5cxx11Ev
FN:8155,_ZN5Catch8Matchers9StdString17StringMatcherBaseC2ERKNSt7__cxx1112basic_stringIcSt11char_traitsIcESaIcEEERKNS1_11CasedStringE
FN:8160,_ZNK5Catch8Matchers9StdString17StringMatcherBase8describeB5cxx11Ev
FN:8172,_ZN5Catch8Matchers9StdString13EqualsMatcherC2ERKNS1_11CasedStringE
FN:8174,_ZNK5Catch8Matchers9StdString13EqualsMatcher5matchERKNSt7__cxx1112basic_stringIcSt11char_traitsIcESaIcEEE
FN:8178,_ZN5Catch8Matchers9StdString15ContainsMatcherC2ERKNS1_11CasedStringE
FN:8180,_ZNK5Catch8Matchers9StdString15ContainsMatcher5matchERKNSt7__cxx1112basic_stringIcSt11char_traitsIcESaIcEEE
FN:8184,_ZN5Catch8Matchers9StdString17StartsWithMatcherC2ERKNS1_11CasedStringE
FN:8186,_ZNK5Catch8Matchers9StdString17StartsWithMatcher5matchERKNSt7__cxx1112basic_stringIcSt11char_traitsIcESaIcEEE
FN:8190,_ZN5Catch8Matchers9StdString15EndsWithMatcherC2ERKNS1_11CasedStringE
FN:8192,_ZNK5Catch8Matchers9StdString15EndsWithMatcher5matchERKNSt7__cxx1112basic_stringIcSt11char_traitsIcESaIcEEE
FN:8196,_ZN5Catch8Matchers9StdString12RegexMatcherC2ENSt7__cxx1112basic_stringIcSt11char_traitsIcESaIcEEENS_13CaseSensitive6ChoiceE
FN:8198,_ZNK5Catch8Matchers9StdString12RegexMatcher5matchERKNSt7__cxx1112basic_stringIcSt11char_traitsIcESaIcEEE
FN:8207,_ZNK5Catch8Matchers9StdString12RegexMatcher8describeB5cxx11Ev
FN:8213,_ZN5Catch8Matchers6EqualsERKNSt7__cxx1112basic_stringIcSt11char_traitsIcESaIcEEENS_13CaseSensitive6ChoiceE
FN:8216,_ZN5Catch8Matchers8ContainsERKNSt7__cxx1112basic_stringIcSt11char_traitsIcESaIcEEENS_13CaseSensitive6ChoiceE
FN:8219,_ZN5Catch8Matchers8EndsWithERKNSt7__cxx1112basic_stringIcSt11char_traitsIcESaIcEEENS_13CaseSensitive6ChoiceE
FN:8222,_ZN5Catch8Matchers10StartsWithERKNSt7__cxx1112basic_stringIcSt11char_traitsIcESaIcEEENS_13CaseSensitive6ChoiceE
FN:8226,_ZN5Catch8Matchers7MatchesERKNSt7__cxx1112basic_stringIcSt11char_traitsIcESaIcEEENS_13CaseSensitive6ChoiceE
FN:8244,_ZN5Catch11MessageInfoC2ERKNSt7__cxx1112basic_stringIcSt11char_traitsIcESaIcEEERKNS_14SourceLineInfoENS_9ResultWas6OfTypeE
FN:8253,_ZNK5Catch11MessageInfoeqERKS0_
FN:8257,_ZNK5Catch11MessageInfoltERKS0_
FN:8266,_ZN5Catch14MessageBuilderC2ERKNSt7__cxx1112basic_stringIcSt11char_traitsIcESaIcEEERKNS_14SourceLineInfoENS_9ResultWas6OfTypeE
FN:8273,_ZN5Catch13ScopedMessageC2ERKNS_14MessageBuilderE
FN:8280,_ZN5Catch13ScopedMessageD2Ev
FN:8309,_ZN5Catch16RedirectedStdOutD2Ev
FN:8320,_ZN5Catch16RedirectedStdErrD2Ev
FN:8399,_ZN5Catch16RedirectedStreamC2ERSoS1_
FN:8407,_ZN5Catch16RedirectedStreamD2Ev
FN:8411,_ZN5Catch16RedirectedStdOutC2Ev
FN:8412,_ZNK5Catch16RedirectedStdOut3strB5cxx11Ev
FN:8414,_ZN5Catch16RedirectedStdErrC2Ev
FN:8418,_ZNK5Catch16RedirectedStdErr3strB5cxx11Ev
FN:8526,_ZN5Catch3rngEv
FN:8531,_ZN5Catch7seedRngERKNS_7IConfigE
FN:8538,_ZN5Catch7rngSeedEv
FN:8565,_ZN5Catch12TestRegistryC2Ev
FN:8567,_ZN5Catch12TestRegistryD0Ev
FN:8567,_ZN5Catch12TestRegistryD2Ev
FN:8584,_ZN5Catch21TestInvokerAsFunctionD2Ev
FN:8584,_ZN5Catch21TestInvokerAsFunctionD0Ev
FN:8605,_ZN5Catch16ReporterRegistryC2Ev
FN:8605,_ZN5Catch16ReporterRegistryD2Ev
FN:8605,_ZN5Catch16ReporterRegistryD0Ev
FN:8634,_ZN5Catch8TagAliasC2EOS0_
FN:8634,_ZN5Catch8TagAliasD2Ev
FN:8648,_ZN5Catch16TagAliasRegistryC2Ev
FN:8669,_ZN5Catch24StartupExceptionRegistryC2Ev
FN:8669,_ZN5Catch24StartupExceptionRegistryD2Ev
FN:8684,_ZN5Catch12_GLOBAL__N_111RegistryHubD0Ev
FN:8684,_ZN5Catch12_GLOBAL__N_111RegistryHubD2Ev
FN:8688,_ZN5Catch12_GLOBAL__N_111RegistryHubC2Ev
FN:8689,_ZNK5Catch12_GLOBAL__N_111RegistryHub19getReporterRegistryEv
FN:8692,_ZNK5Catch12_GLOBAL__N_111RegistryHub19getTestCaseRegistryEv
FN:8695,_ZN5Catch12_GLOBAL__N_111RegistryHub30getExceptionTranslatorRegistryEv
FN:8698,_ZNK5Catch12_GLOBAL__N_111RegistryHub19getTagAliasRegistryEv
FN:8701,_ZNK5Catch12_GLOBAL__N_111RegistryHub27getStartupExceptionRegistryEv
FN:8706,_ZN5Catch12_GLOBAL__N_111RegistryHub16registerReporterERKNSt7__cxx1112basic_stringIcSt11char_traitsIcESaIcEEERKSt10shared_ptrINS_16IReporterFactoryEE
FN:8709,_ZN5Catch12_GLOBAL__N_111RegistryHub16registerListenerERKSt10shared_ptrINS_16IReporterFactoryEE
FN:8712,_ZN5Catch12_GLOBAL__N_111RegistryHub12registerTestERKNS_8TestCaseE
FN:8715,_ZN5Catch12_GLOBAL__N_111RegistryHub18registerTranslatorEPKNS_20IExceptionTranslatorE
FN:8718,_ZN5Catch12_GLOBAL__N_111RegistryHub16registerTagAliasERKNSt7__cxx1112basic_stringIcSt11char_traitsIcESaIcEEES9_RKNS_14SourceLineInfoE
FN:8721,_ZN5Catch12_GLOBAL__N_111RegistryHub24registerStartupExceptionEv
FN:8734,_ZN5Catch12_GLOBAL__N_117getTheRegistryHubEv
FN:8742,_ZN5Catch14getRegistryHubEv
FN:8745,_ZN5Catch21getMutableRegistryHubEv
FN:8748,_ZN5Catch7cleanUpEv
FN:8754,_ZN5Catch24translateActiveExceptionB5cxx11Ev
FN:8766,_ZNK5Catch16ReporterRegistry6createERKNSt7__cxx1112basic_stringIcSt11char_traitsIcESaIcEEERKSt10shared_ptrIKNS_7IConfigEE
FN:8773,_ZN5Catch16ReporterRegistry16registerReporterERKNSt7__cxx1112basic_stringIcSt11char_traitsIcESaIcEEERKSt10shared_ptrINS_16IReporterFactoryEE
FN:8776,_ZN5Catch16ReporterRegistry16registerListenerERKSt10shared_ptrINS_16IReporterFactoryEE
FN:8780,_ZNK5Catch16ReporterRegistry12getFactoriesB5cxx11Ev
FN:8783,_ZNK5Catch16ReporterRegistry12getListenersEv
FN:8793,_ZN5Catch4isOkENS_9ResultWas6OfTypeE
FN:8796,_ZN5Catch10isJustInfoEi
FN:8800,_ZN5CatchorENS_17ResultDisposition5FlagsES1_
FN:8804,_ZN5Catch23shouldContinueOnFailureEi
FN:8805,_ZN5Catch21shouldSuppressFailureEi
FN:8817,_ZN5Catch10RunContextC2ERKSt10shared_ptrIKNS_7IConfigEEOSt10unique_ptrINS_18IStreamingReporterESt14default_deleteIS8_EE
FN:8831,_ZN5Catch10RunContextD2Ev
FN:8831,_ZN5Catch10RunContextD0Ev
FN:8835,_ZN5Catch10RunContext17testGroupStartingERKNSt7__cxx1112basic_stringIcSt11char_traitsIcESaIcEEEmm
FN:8839,_ZN5Catch10RunContext14testGroupEndedERKNSt7__cxx1112basic_stringIcSt11char_traitsIcESaIcEEERKNS_6TotalsEmm
FN:8843,_ZN5Catch10RunContext7runTestERKNS_8TestCaseE
FN:8883,_ZNK5Catch10RunContext6configEv
FN:8887,_ZNK5Catch10RunContext8reporterEv
FN:8891,_ZN5Catch10RunContext14assertionEndedERKNS_15AssertionResultE
FN:8914,_ZN5Catch10RunContext18resetAssertionInfoEv
FN:8919,_ZN5Catch10RunContext14sectionStartedERKNS_11SectionInfoERNS_6CountsE
FN:8934,_ZN5Catch10RunContext24testForMissingAssertionsERNS_6CountsE
FN:8946,_ZN5Catch10RunContext12sectionEndedERKNS_14SectionEndInfoE
FN:8959,_ZN5Catch10RunContext17sectionEndedEarlyERKNS_14SectionEndInfoE
FN:8968,_ZN5Catch10RunContext17benchmarkStartingERKNS_13BenchmarkInfoE
FN:8971,_ZN5Catch10RunContext14benchmarkEndedERKNS_14BenchmarkStatsE
FN:8975,_ZN5Catch10RunContext17pushScopedMessageERKNS_11MessageInfoE
FN:8979,_ZN5Catch10RunContext16popScopedMessageERKNS_11MessageInfoE
FN:8983,_ZNK5Catch10RunContext18getCurrentTestNameB5cxx11Ev
FN:8989,_ZNK5Catch10RunContext13getLastResultEv
FN:8993,_ZN5Catch10RunContext22exceptionEarlyReportedEv
FN:8997,_ZN5Catch10RunContext25handleFatalErrorConditionENS_9StringRefE
FN:9035,_ZN5Catch10RunContext19lastAssertionPassedEv
FN:9039,_ZN5Catch10RunContext15assertionPassedEv
FN:9045,_ZNK5Catch10RunContext8abortingEv
FN:9049,_ZN5Catch10RunContext14runCurrentTestERNSt7__cxx1112basic_stringIcSt11char_traitsIcESaIcEEES7_
FN:9102,_ZN5Catch10RunContext20invokeActiveTestCaseEv
FN:9108,_ZN5Catch10RunContext24handleUnfinishedSectionsEv
FN:9119,_ZN5Catch10RunContext10handleExprERKNS_13AssertionInfoERKNS_20ITransientExpressionERNS_17AssertionReactionE
FN:9142,_ZN5Catch10RunContext10reportExprERKNS_13AssertionInfoENS_9ResultWas6OfTypeEPKNS_20ITransientExpressionEb
FN:9157,_ZN5Catch10RunContext13handleMessageERKNS_13AssertionInfoENS_9ResultWas6OfTypeERKNS_9StringRefERNS_17AssertionReactionE
FN:9174,_ZN5Catch10RunContext34handleUnexpectedExceptionNotThrownERKNS_13AssertionInfoERNS_17AssertionReactionE
FN:9181,_ZN5Catch10RunContext33handleUnexpectedInflightExceptionERKNS_13AssertionInfoERKNSt7__cxx1112basic_stringIcSt11char_traitsIcESaIcEEERNS_17AssertionReactionE
FN:9195,_ZN5Catch10RunContext16populateReactionERNS_17AssertionReactionE
FN:9200,_ZN5Catch10RunContext16handleIncompleteERKNS_13AssertionInfoE
FN:9210,_ZN5Catch10RunContext13handleNonExprERKNS_13AssertionInfoENS_9ResultWas6OfTypeERNS_17AssertionReactionE
FN:9225,_ZN5Catch16getResultCaptureEv
FN:9237,_ZN5Catch7SectionC2ERKNS_11SectionInfoE
FN:9244,_ZN5Catch7SectionD0Ev
FN:9244,_ZN5Catch7SectionD2Ev
FN:9255,_ZNK5Catch7SectioncvbEv
FN:9265,_ZN5Catch11SectionInfoC2ERKNS_14SourceLineInfoERKNSt7__cxx1112basic_stringIcSt11char_traitsIcESaIcEEE
FN:9356,_ZN5Catch12_GLOBAL__N_114createReporterERKNSt7__cxx1112basic_stringIcSt11char_traitsIcESaIcEEERKSt10shared_ptrIKNS_7IConfigEE
FN:9363,_ZN5Catch12_GLOBAL__N_112makeReporterERKSt10shared_ptrINS_6ConfigEE
FN:9378,_ZN5Catch12_GLOBAL__N_18runTestsERKSt10shared_ptrINS_6ConfigEE
FN:9417,_ZN5Catch12_GLOBAL__N_120applyFilenamesAsTagsERKNS_7IConfigE
FN:9441,_ZN5Catch7SessionC2Ev
FN:9466,_ZN5Catch7SessionD0Ev
FN:9466,_ZN5Catch7SessionD2Ev
FN:9470,_ZNK5Catch7Session8showHelpEv
FN:9476,_ZN5Catch7Session11libIdentifyEv
FN:9484,_ZN5Catch7Session16applyCommandLineEiPKPKc
FN:9507,_ZN5Catch7Session13useConfigDataERKNS_10ConfigDataE
FN:9512,_ZN5Catch7Session3runEiPPc
FN:9544,_ZN5Catch7Session3runEv
FN:9557,_ZNK5Catch7Session3cliEv
FN:9560,_ZN5Catch7Session3cliERKNS_5clara6detail6ParserE
FN:9563,_ZN5Catch7Session10configDataEv
FN:9566,_ZN5Catch7Session6configEv
FN:9572,_ZN5Catch7Session11runInternalEv
FN:9609,_ZN5Catch24StartupExceptionRegistry3addERKNSt15__exception_ptr13exception_ptrE
FN:9619,_ZNK5Catch24StartupExceptionRegistry13getExceptionsEv
FN:9650,_ZN5Catch6detail12_GLOBAL__N_113StreamBufImplINS1_17OutputDebugWriterELm256EEC2Ev
FN:9654,_ZN5Catch6detail12_GLOBAL__N_113StreamBufImplINS1_17OutputDebugWriterELm256EED0Ev
FN:9654,_ZN5Catch6detail12_GLOBAL__N_113StreamBufImplINS1_17OutputDebugWriterELm256EED2Ev
FN:9659,_ZN5Catch6detail12_GLOBAL__N_113StreamBufImplINS1_17OutputDebugWriterELm256EE8overflowEi
FN:9671,_ZN5Catch6detail12_GLOBAL__N_113StreamBufImplINS1_17OutputDebugWriterELm256EE4syncEv
FN:9684,_ZN5Catch6detail12_GLOBAL__N_117OutputDebugWriterclERKNSt7__cxx1112basic_stringIcSt11char_traitsIcESaIcEEE
FN:9694,_ZN5Catch6detail12_GLOBAL__N_110FileStreamC2ENS_9StringRefE
FN:9698,_ZN5Catch6detail12_GLOBAL__N_110FileStreamD2Ev
FN:9698,_ZN5Catch6detail12_GLOBAL__N_110FileStreamD0Ev
FN:9700,_ZNK5Catch6detail12_GLOBAL__N_110FileStream6streamEv
FN:9712,_ZN5Catch6detail12_GLOBAL__N_110CoutStreamC2Ev
FN:9713,_ZN5Catch6detail12_GLOBAL__N_110CoutStreamD0Ev
FN:9713,_ZN5Catch6detail12_GLOBAL__N_110CoutStreamD2Ev
FN:9716,_ZNK5Catch6detail12_GLOBAL__N_110CoutStream6streamEv
FN:9725,_ZN5Catch6detail12_GLOBAL__N_114DebugOutStreamC2Ev
FN:9730,_ZN5Catch6detail12_GLOBAL__N_114DebugOutStreamD2Ev
FN:9730,_ZN5Catch6detail12_GLOBAL__N_114DebugOutStreamD0Ev
FN:9733,_ZNK5Catch6detail12_GLOBAL__N_114DebugOutStream6streamEv
FN:9740,_ZN5Catch10makeStreamERKNS_9StringRefE
FN:9754,_ZN5Catch13StringStreamsD2Ev
FN:9754,_ZN5Catch13StringStreamsC2Ev
FN:9760,_ZN5Catch13StringStreams3addEv
FN:9772,_ZN5Catch13StringStreams7releaseEm
FN:9778,_ZN5Catch13StringStreams8instanceEv
FN:9783,_ZN5Catch13StringStreams7cleanupEv
FN:9791,_ZN5Catch20ReusableStringStream7cleanupEv
FN:9795,_ZN5Catch20ReusableStringStreamC2Ev
FN:9800,_ZN5Catch20ReusableStringStreamD2Ev
FN:9806,_ZNK5Catch20ReusableStringStream3strB5cxx11Ev
FN:9813,_ZN5Catch4coutEv
FN:9814,_ZN5Catch4cerrEv
FN:9815,_ZN5Catch4clogEv
FN:9833,_ZN5Catch12_GLOBAL__N_19toLowerChEc
FN:9838,_ZN5Catch10startsWithERKNSt7__cxx1112basic_stringIcSt11char_traitsIcESaIcEEES7_
FN:9841,_ZN5Catch10startsWithERKNSt7__cxx1112basic_stringIcSt11char_traitsIcESaIcEEEc
FN:9844,_ZN5Catch8endsWithERKNSt7__cxx1112basic_stringIcSt11char_traitsIcESaIcEEES7_
FN:9847,_ZN5Catch8endsWithERKNSt7__cxx1112basic_stringIcSt11char_traitsIcESaIcEEEc
FN:9850,_ZN5Catch8containsERKNSt7__cxx1112basic_stringIcSt11char_traitsIcESaIcEEES7_
FN:9853,_ZN5Catch14toLowerInPlaceERNSt7__cxx1112basic_stringIcSt11char_traitsIcESaIcEEE
FN:9856,_ZN5Catch7toLowerERKNSt7__cxx1112basic_stringIcSt11char_traitsIcESaIcEEE
FN:9861,_ZN5Catch4trimERKNSt7__cxx1112basic_stringIcSt11char_traitsIcESaIcEEE
FN:9869,_ZN5Catch14replaceInPlaceERNSt7__cxx1112basic_stringIcSt11char_traitsIcESaIcEEERKS5_S8_
FN:9883,_ZN5Catch9pluraliseC2EmRKNSt7__cxx1112basic_stringIcSt11char_traitsIcESaIcEEE
FN:9888,_ZN5CatchlsERSoRKNS_9pluraliseE
FN:9915,_ZN5Catch9StringRefC2EPKc
FN:9919,_ZNK5Catch9StringRefcvNSt7__cxx1112basic_stringIcSt11char_traitsIcESaIcEEEEv
FN:9923,_ZN5Catch9StringRef4swapERS0_
FN:9929,_ZNK5Catch9StringRef5c_strEv
FN:9934,_ZNK5Catch9StringRef11currentDataEv
FN:9938,_ZNK5Catch9StringRef7isOwnedEv
FN:9941,_ZNK5Catch9StringRef11isSubstringEv
FN:9945,_ZN5Catch9StringRef13takeOwnershipEv
FN:9953,_ZNK5Catch9StringRef6substrEmm
FN:9959,_ZNK5Catch9StringRefeqERKS0_
FN:9964,_ZNK5Catch9StringRefneERKS0_
FN:9968,_ZNK5Catch9StringRefixEm
FN:9972,_ZNK5Catch9StringRef18numberOfCharactersEv
FN:9988,_ZN5CatchplB5cxx11ERKNS_9StringRefES2_
FN:9995,_ZN5CatchplB5cxx11ERKNS_9StringRefEPKc
FN:9998,_ZN5CatchplB5cxx11EPKcRKNS_9StringRefE
FN:10002,_ZN5CatchlsERSoRKNS_9StringRefE
FN:10006,_ZN5CatchpLERNSt7__cxx1112basic_stringIcSt11char_traitsIcESaIcEEERKNS_9StringRefE
FN:10020,_ZN5Catch8TagAliasC2ERKNSt7__cxx1112basic_stringIcSt11char_traitsIcESaIcEEENS_14SourceLineInfoE
FN:10027,_ZN5Catch22RegistrarForTagAliasesC2EPKcS2_RKNS_14SourceLineInfoE
FN:10044,_ZN5Catch16TagAliasRegistryD2Ev
FN:10044,_ZN5Catch16TagAliasRegistryD0Ev
FN:10046,_ZNK5Catch16TagAliasRegistry4findERKNSt7__cxx1112basic_stringIcSt11char_traitsIcESaIcEEE
FN:10054,_ZNK5Catch16TagAliasRegistry13expandAliasesERKNSt7__cxx1112basic_stringIcSt11char_traitsIcESaIcEEE
FN:10067,_ZN5Catch16TagAliasRegistry3addERKNSt7__cxx1112basic_stringIcSt11char_traitsIcESaIcEEES8_RKNS_14SourceLineInfoE
FN:10077,_ZN5Catch17ITagAliasRegistryD0Ev
FN:10077,_ZN5Catch17ITagAliasRegistryD2Ev
FN:10079,_ZN5Catch17ITagAliasRegistry3getEv
FN:10095,_ZN5Catch12_GLOBAL__N_115parseSpecialTagERKNSt7__cxx1112basic_stringIcSt11char_traitsIcESaIcEEE
FN:10112,_ZN5Catch12_GLOBAL__N_113isReservedTagERKNSt7__cxx1112basic_stringIcSt11char_traitsIcESaIcEEE
FN:10115,_ZN5Catch12_GLOBAL__N_121enforceNotReservedTagERKNSt7__cxx1112basic_stringIcSt11char_traitsIcESaIcEEERKNS_14SourceLineInfoE
FN:10123,_ZN5Catch12makeTestCaseEPNS_12ITestInvokerERKNSt7__cxx1112basic_stringIcSt11char_traitsIcESaIcEEERKNS_11NameAndTagsERKNS_14SourceLineInfoE
FN:10166,_ZN5Catch7setTagsERNS_12TestCaseInfoESt6vectorINSt7__cxx1112basic_stringIcSt11char_traitsIcESaIcEEESaIS8_EE
FN:10179,_ZN5Catch12TestCaseInfoC2ERKNSt7__cxx1112basic_stringIcSt11char_traitsIcESaIcEEES8_S8_RKSt6vectorIS6_SaIS6_EERKNS_14SourceLineInfoE
FN:10193,_ZNK5Catch12TestCaseInfo8isHiddenEv
FN:10196,_ZNK5Catch12TestCaseInfo6throwsEv
FN:10199,_ZNK5Catch12TestCaseInfo8okToFailEv
FN:10202,_ZNK5Catch12TestCaseInfo14expectedToFailEv
FN:10206,_ZNK5Catch12TestCaseInfo12tagsAsStringB5cxx11Ev
FN:10223,_ZN5Catch8TestCaseC2EPNS_12ITestInvokerEONS_12TestCaseInfoE
FN:10225,_ZNK5Catch8TestCase8withNameERKNSt7__cxx1112basic_stringIcSt11char_traitsIcESaIcEEE
FN:10231,_ZNK5Catch8TestCase6invokeEv
FN:10235,_ZNK5Catch8TestCaseeqERKS0_
FN:10241,_ZNK5Catch8TestCaseltERKS0_
FN:10245,_ZNK5Catch8TestCase15getTestCaseInfoEv
FN:10258,_ZN5Catch9sortTestsERKNS_7IConfigERKSt6vectorINS_8TestCaseESaIS4_EE
FN:10276,_ZN5Catch9matchTestERKNS_8TestCaseERKNS_8TestSpecERKNS_7IConfigE
FN:10280,_ZN5Catch27enforceNoDuplicateTestCasesERKSt6vectorINS_8TestCaseESaIS1_EE
FN:10291,_ZN5Catch11filterTestsERKSt6vectorINS_8TestCaseESaIS1_EERKNS_8TestSpecERKNS_7IConfigE
FN:10299,_ZN5Catch21getAllTestCasesSortedERKNS_7IConfigE
FN:10303,_ZN5Catch12TestRegistry12registerTestERKNS_8TestCaseE
FN:10313,_ZNK5Catch12TestRegistry11getAllTestsEv
FN:10316,_ZNK5Catch12TestRegistry17getAllTestsSortedERKNS_7IConfigE
FN:10328,_ZN5Catch21TestInvokerAsFunctionC2EPFvvE
FN:10330,_ZNK5Catch21TestInvokerAsFunction6invokeEv
FN:10334,_ZN5Catch16extractClassNameB5cxx11ERKNS_9StringRefE
FN:10365,_ZN5Catch16TestCaseTracking15NameAndLocationC2ERKNSt7__cxx1112basic_stringIcSt11char_traitsIcESaIcEEERKNS_14SourceLineInfoE
FN:10372,_ZN5Catch16TestCaseTracking14TrackerContext8instanceEv
FN:10377,_ZN5Catch16TestCaseTracking14TrackerContext8startRunEv
FN:10384,_ZN5Catch16TestCaseTracking14TrackerContext6endRunEv
FN:10390,_ZN5Catch16TestCaseTracking14TrackerContext10startCycleEv
FN:10394,_ZN5Catch16TestCaseTracking14TrackerContext13completeCycleEv
FN:10398,_ZNK5Catch16TestCaseTracking14TrackerContext14completedCycleEv
FN:10401,_ZN5Catch16TestCaseTracking14TrackerContext14currentTrackerEv
FN:10404,_ZN5Catch16TestCaseTracking14TrackerContext17setCurrentTrackerEPNS0_8ITrackerE
FN:10408,_ZN5Catch16TestCaseTracking11TrackerBase14TrackerHasNameC2ERKNS0_15NameAndLocationE
FN:10409,_ZNK5Catch16TestCaseTracking11TrackerBase14TrackerHasNameclERKSt10shared_ptrINS0_8ITrackerEE
FN:10415,_ZN5Catch16TestCaseTracking11TrackerBaseC2ERKNS0_15NameAndLocationERNS0_14TrackerContextEPNS0_8ITrackerE
FN:10421,_ZNK5Catch16TestCaseTracking11TrackerBase15nameAndLocationEv
FN:10424,_ZNK5Catch16TestCaseTracking11TrackerBase10isCompleteEv
FN:10427,_ZNK5Catch16TestCaseTracking11TrackerBase23isSuccessfullyCompletedEv
FN:10430,_ZNK5Catch16TestCaseTracking11TrackerBase6isOpenEv
FN:10433,_ZNK5Catch16TestCaseTracking11TrackerBase11hasChildrenEv
FN:10437,_ZN5Catch16TestCaseTracking11TrackerBase8addChildERKSt10shared_ptrINS0_8ITrackerEE
FN:10441,_ZN5Catch16TestCaseTracking11TrackerBase9findChildERKNS0_15NameAndLocationE
FN:10447,_ZN5Catch16TestCaseTracking11TrackerBase6parentEv
FN:10452,_ZN5Catch16TestCaseTracking11TrackerBase9openChildEv
FN:10460,_ZNK5Catch16TestCaseTracking11TrackerBase16isSectionTrackerEv
FN:10461,_ZNK5Catch16TestCaseTracking11TrackerBase14isIndexTrackerEv
FN:10463,_ZN5Catch16TestCaseTracking11TrackerBase4openEv
FN:10470,_ZN5Catch16TestCaseTracking11TrackerBase5closeEv
FN:10499,_ZN5Catch16TestCaseTracking11TrackerBase4failEv
FN:10506,_ZN5Catch16TestCaseTracking11TrackerBase23markAsNeedingAnotherRunEv
FN:10510,_ZN5Catch16TestCaseTracking11TrackerBase12moveToParentEv
FN:10514,_ZN5Catch16TestCaseTracking11TrackerBase10moveToThisEv
FN:10518,_ZN5Catch16TestCaseTracking14SectionTrackerC2ERKNS0_15NameAndLocationERNS0_14TrackerContextEPNS0_8ITrackerE
FN:10530,_ZNK5Catch16TestCaseTracking14SectionTracker16isSectionTrackerEv
FN:10532,_ZN5Catch16TestCaseTracking14SectionTracker7acquireERNS0_14TrackerContextERKNS0_15NameAndLocationE
FN:10550,_ZN5Catch16TestCaseTracking14SectionTracker7tryOpenEv
FN:10555,_ZN5Catch16TestCaseTracking14SectionTracker17addInitialFiltersERKSt6vectorINSt7__cxx1112basic_stringIcSt11char_traitsIcESaIcEEESaIS8_EE
FN:10562,_ZN5Catch16TestCaseTracking14SectionTracker14addNextFiltersERKSt6vectorINSt7__cxx1112basic_stringIcSt11char_traitsIcESaIcEEESaIS8_EE
FN:10567,_ZN5Catch16TestCaseTracking12IndexTrackerC2ERKNS0_15NameAndLocationERNS0_14TrackerContextEPNS0_8ITrackerEi
FN:10572,_ZNK5Catch16TestCaseTracking12IndexTracker14isIndexTrackerEv
FN:10574,_ZN5Catch16TestCaseTracking12IndexTracker7acquireERNS0_14TrackerContextERKNS0_15NameAndLocationEi
FN:10597,_ZNK5Catch16TestCaseTracking12IndexTracker5indexEv
FN:10599,_ZN5Catch16TestCaseTracking12IndexTracker8moveNextEv
FN:10604,_ZN5Catch16TestCaseTracking12IndexTracker5closeEv
FN:10627,_ZN5Catch15makeTestInvokerEPFvvE
FN:10631,_ZN5Catch11NameAndTagsC2ERKNS_9StringRefES3_
FN:10633,_ZN5Catch7AutoRegC2EPNS_12ITestInvokerERKNS_14SourceLineInfoERKNS_9StringRefERKNS_11NameAndTagsE
FN:10665,_ZN5Catch8TestSpec11NamePatternC2ERKNSt7__cxx1112basic_stringIcSt11char_traitsIcESaIcEEE
FN:10668,_ZNK5Catch8TestSpec11NamePattern7matchesERKNS_12TestCaseInfoE
FN:10672,_ZN5Catch8TestSpec10TagPatternC2ERKNSt7__cxx1112basic_stringIcSt11char_traitsIcESaIcEEE
FN:10673,_ZNK5Catch8TestSpec10TagPattern7matchesERKNS_12TestCaseInfoE
FN:10679,_ZN5Catch8TestSpec15ExcludedPatternC2ERKSt10shared_ptrINS0_7PatternEE
FN:10680,_ZNK5Catch8TestSpec15ExcludedPattern7matchesERKNS_12TestCaseInfoE
FN:10682,_ZNK5Catch8TestSpec6Filter7matchesERKNS_12TestCaseInfoE
FN:10691,_ZNK5Catch8TestSpec10hasFiltersEv
FN:10694,_ZNK5Catch8TestSpec7matchesERKNS_12TestCaseInfoE
FN:10707,_ZN5Catch14TestSpecParserC2ERKNS_17ITagAliasRegistryE
FN:10709,_ZN5Catch14TestSpecParser5parseERKNSt7__cxx1112basic_stringIcSt11char_traitsIcESaIcEEE
FN:10721,_ZN5Catch14TestSpecParser8testSpecEv
FN:10726,_ZN5Catch14TestSpecParser9visitCharEc
FN:10759,_ZN5Catch14TestSpecParser12startNewModeENS0_4ModeEm
FN:10763,_ZN5Catch14TestSpecParser6escapeEv
FN:10769,_ZNK5Catch14TestSpecParser9subStringB5cxx11Ev
FN:10771,_ZN5Catch14TestSpecParser9addFilterEv
FN:10778,_ZN5Catch13parseTestSpecERKNSt7__cxx1112basic_stringIcSt11char_traitsIcESaIcEEE
FN:10792,_ZN5Catch31getCurrentNanosecondsSinceEpochEv
FN:10797,_ZN5Catch12_GLOBAL__N_123estimateClockResolutionEv
FN:10827,_ZN5Catch27getEstimatedClockResolutionEv
FN:10832,_ZN5Catch5Timer5startEv
FN:10835,_ZNK5Catch5Timer21getElapsedNanosecondsEv
FN:10838,_ZNK5Catch5Timer22getElapsedMicrosecondsEv
FN:10841,_ZNK5Catch5Timer22getElapsedMillisecondsEv
FN:10844,_ZNK5Catch5Timer17getElapsedSecondsEv
FN:10878,_ZN5Catch6Detail12_GLOBAL__N_110Endianness5whichEv
FN:10890,_ZN5Catch6Detail17rawMemoryToStringB5cxx11EPKvm
FN:10908,_ZN5Catch10fpToStringIfEENSt7__cxx1112basic_stringIcSt11char_traitsIcESaIcEEET_i
FN:10908,_ZN5Catch10fpToStringIdEENSt7__cxx1112basic_stringIcSt11char_traitsIcESaIcEEET_i
FN:10933,_ZN5Catch11StringMakerINSt7__cxx1112basic_stringIcSt11char_traitsIcESaIcEEEvE7convertERKS6_
FN:10957,_ZN5Catch11StringMakerINSt7__cxx1112basic_stringIwSt11char_traitsIwESaIwEEEvE7convertERKS6_
FN:10967,_ZN5Catch11StringMakerIPKcvE7convertB5cxx11ES2_
FN:10974,_ZN5Catch11StringMakerIPcvE7convertB5cxx11ES1_
FN:10982,_ZN5Catch11StringMakerIPKwvE7convertB5cxx11ES2_
FN:10989,_ZN5Catch11StringMakerIPwvE7convertB5cxx11ES1_
FN:10998,_ZN5Catch11StringMakerIivE7convertB5cxx11Ei
FN:11001,_ZN5Catch11StringMakerIlvE7convertB5cxx11El
FN:11004,_ZN5Catch11StringMakerIxvE7convertB5cxx11Ex
FN:11013,_ZN5Catch11StringMakerIjvE7convertB5cxx11Ej
FN:11016,_ZN5Catch11StringMakerImvE7convertB5cxx11Em
FN:11019,_ZN5Catch11StringMakerIyvE7convertB5cxx11Ey
FN:11028,_ZN5Catch11StringMakerIbvE7convertB5cxx11Eb
FN:11032,_ZN5Catch11StringMakerIcvE7convertB5cxx11Ec
FN:11049,_ZN5Catch11StringMakerIavE7convertB5cxx11Ea
FN:11052,_ZN5Catch11StringMakerIhvE7convertB5cxx11Eh
FN:11056,_ZN5Catch11StringMakerIDnvE7convertB5cxx11EDn
FN:11060,_ZN5Catch11StringMakerIfvE7convertB5cxx11Ef
FN:11063,_ZN5Catch11StringMakerIdvE7convertB5cxx11Ed
FN:11067,_ZN5Catch12ratio_stringISt5ratioILl1ELl1000000000000000000EEE6symbolB5cxx11Ev
FN:11068,_ZN5Catch12ratio_stringISt5ratioILl1ELl1000000000000000EEE6symbolB5cxx11Ev
FN:11069,_ZN5Catch12ratio_stringISt5ratioILl1ELl1000000000000EEE6symbolB5cxx11Ev
FN:11070,_ZN5Catch12ratio_stringISt5ratioILl1ELl1000000000EEE6symbolB5cxx11Ev
FN:11071,_ZN5Catch12ratio_stringISt5ratioILl1ELl1000000EEE6symbolB5cxx11Ev
FN:11072,_ZN5Catch12ratio_stringISt5ratioILl1ELl1000EEE6symbolB5cxx11Ev
FN:11085,_ZNK5Catch6CountsmiERKS0_
FN:11093,_ZN5Catch6CountspLERKS0_
FN:11100,_ZNK5Catch6Counts5totalEv
FN:11103,_ZNK5Catch6Counts9allPassedEv
FN:11106,_ZNK5Catch6Counts5allOkEv
FN:11110,_ZNK5Catch6TotalsmiERKS0_
FN:11117,_ZN5Catch6TotalspLERKS0_
FN:11123,_ZNK5Catch6Totals5deltaERKS0_
FN:11141,_ZN5Catch19uncaught_exceptionsEv
FN:11156,_ZN5Catch7VersionC2EjjjPKcj
FN:11169,_ZN5CatchlsERSoRKNS_7VersionE
FN:11181,_ZN5Catch14libraryVersionEv
FN:11194,_ZN5Catch15WildcardPatternC2ERKNSt7__cxx1112basic_stringIcSt11char_traitsIcESaIcEEENS_13CaseSensitive6ChoiceE
FN:11209,_ZNK5Catch15WildcardPattern7matchesERKNSt7__cxx1112basic_stringIcSt11char_traitsIcESaIcEEE
FN:11224,_ZNK5Catch15WildcardPattern10adjustCaseERKNSt7__cxx1112basic_stringIcSt11char_traitsIcESaIcEEE
FN:11239,_ZN5Catch12_GLOBAL__N_113trailingBytesEh
FN:11252,_ZN5Catch12_GLOBAL__N_111headerValueEh
FN:11265,_ZN5Catch12_GLOBAL__N_113hexEscapeCharERSoh
FN:11273,_ZN5Catch9XmlEncodeC2ERKNSt7__cxx1112basic_stringIcSt11char_traitsIcESaIcEEENS0_7ForWhatE
FN:11278,_ZNK5Catch9XmlEncode8encodeToERSo
FN:11372,_ZN5CatchlsERSoRKNS_9XmlEncodeE
FN:11377,_ZN5Catch9XmlWriter13ScopedElementC2EPS0_
FN:11381,_ZN5Catch9XmlWriter13ScopedElementC2EOS1_
FN:11385,_ZN5Catch9XmlWriter13ScopedElementaSEOS1_
FN:11394,_ZN5Catch9XmlWriter13ScopedElementD2Ev
FN:11399,_ZN5Catch9XmlWriter13ScopedElement9writeTextERKNSt7__cxx1112basic_stringIcSt11char_traitsIcESaIcEEEb
FN:11404,_ZN5Catch9XmlWriterC2ERSo
FN:11409,_ZN5Catch9XmlWriterD2Ev
FN:11414,_ZN5Catch9XmlWriter12startElementERKNSt7__cxx1112basic_stringIcSt11char_traitsIcESaIcEEE
FN:11424,_ZN5Catch9XmlWriter13scopedElementERKNSt7__cxx1112basic_stringIcSt11char_traitsIcESaIcEEE
FN:11430,_ZN5Catch9XmlWriter10endElementEv
FN:11445,_ZN5Catch9XmlWriter14writeAttributeERKNSt7__cxx1112basic_stringIcSt11char_traitsIcESaIcEEES8_
FN:11451,_ZN5Catch9XmlWriter14writeAttributeERKNSt7__cxx1112basic_stringIcSt11char_traitsIcESaIcEEEb
FN:11456,_ZN5Catch9XmlWriter9writeTextERKNSt7__cxx1112basic_stringIcSt11char_traitsIcESaIcEEEb
FN:11468,_ZN5Catch9XmlWriter12writeCommentERKNSt7__cxx1112basic_stringIcSt11char_traitsIcESaIcEEE
FN:11475,_ZN5Catch9XmlWriter18writeStylesheetRefERKNSt7__cxx1112basic_stringIcSt11char_traitsIcESaIcEEE
FN:11479,_ZN5Catch9XmlWriter14writeBlankLineEv
FN:11485,_ZN5Catch9XmlWriter15ensureTagClosedEv
FN:11492,_ZN5Catch9XmlWriter16writeDeclarationEv
FN:11496,_ZN5Catch9XmlWriter18newlineIfNecessaryEv
FN:11513,_ZN5Catch25prepareExpandedExpressionERNS_15AssertionResultE
FN:11519,_ZN5Catch20getFormattedDurationB5cxx11Ed
FN:11537,_ZN5Catch21TestEventListenerBaseC2ERKNS_14ReporterConfigE
FN:11540,_ZN5Catch21TestEventListenerBase17assertionStartingERKNS_13AssertionInfoE
FN:11542,_ZN5Catch21TestEventListenerBase14assertionEndedERKNS_14AssertionStatsE
FN:11556,_ZN12_GLOBAL__N_112failedStringEv
FN:11557,_ZN12_GLOBAL__N_112passedStringEv
FN:11561,_ZN12_GLOBAL__N_19dimColourEv
FN:11563,_ZN12_GLOBAL__N_19bothOrAllEm
FN:11578,_ZN5Catch12_GLOBAL__N_111printTotalsERSoRKNS_6TotalsE
FN:11611,_ZN5Catch12_GLOBAL__N_116AssertionPrinterD2Ev
FN:11615,_ZN5Catch12_GLOBAL__N_116AssertionPrinterC2ERSoRKNS_14AssertionStatsEb
FN:11622,_ZN5Catch12_GLOBAL__N_116AssertionPrinter5printEv
FN:11691,_ZNK5Catch12_GLOBAL__N_116AssertionPrinter15printSourceInfoEv
FN:11696,_ZNK5Catch12_GLOBAL__N_116AssertionPrinter15printResultTypeENS_6Colour4CodeERKNSt7__cxx1112basic_stringIcSt11char_traitsIcESaIcEEE
FN:11706,_ZNK5Catch12_GLOBAL__N_116AssertionPrinter10printIssueERKNSt7__cxx1112basic_stringIcSt11char_traitsIcESaIcEEE
FN:11710,_ZN5Catch12_GLOBAL__N_116AssertionPrinter18printExpressionWasEv
FN:11721,_ZNK5Catch12_GLOBAL__N_116AssertionPrinter23printOriginalExpressionEv
FN:11727,_ZNK5Catch12_GLOBAL__N_116AssertionPrinter28printReconstructedExpressionEv
FN:11737,_ZN5Catch12_GLOBAL__N_116AssertionPrinter12printMessageEv
FN:11744,_ZN5Catch12_GLOBAL__N_116AssertionPrinter22printRemainingMessagesENS_6Colour4CodeE
FN:11779,_ZN5Catch15CompactReporter14getDescriptionB5cxx11Ev
FN:11783,_ZNK5Catch15CompactReporter14getPreferencesEv
FN:11787,_ZN5Catch15CompactReporter19noMatchingTestCasesERKNSt7__cxx1112basic_stringIcSt11char_traitsIcESaIcEEE
FN:11791,_ZN5Catch15CompactReporter17assertionStartingERKNS_13AssertionInfoE
FN:11793,_ZN5Catch15CompactReporter14assertionEndedERKNS_14AssertionStatsE
FN:11812,_ZN5Catch15CompactReporter12sectionEndedERKNS_12SectionStatsE
FN:11818,_ZN5Catch15CompactReporter12testRunEndedERKNS_12TestRunStatsE
FN:11824,_ZN5Catch15CompactReporterD2Ev
FN:11824,_ZN5Catch15CompactReporterD0Ev
FN:11847,_ZN5Catch12_GLOBAL__N_123ConsoleAssertionPrinterD2Ev
FN:11851,_ZN5Catch12_GLOBAL__N_123ConsoleAssertionPrinterC2ERSoRKNS_14AssertionStatsEb
FN:11925,_ZNK5Catch12_GLOBAL__N_123ConsoleAssertionPrinter5printEv
FN:11940,_ZNK5Catch12_GLOBAL__N_123ConsoleAssertionPrinter15printResultTypeEv
FN:11946,_ZNK5Catch12_GLOBAL__N_123ConsoleAssertionPrinter23printOriginalExpressionEv
FN:11954,_ZNK5Catch12_GLOBAL__N_123ConsoleAssertionPrinter28printReconstructedExpressionEv
FN:11961,_ZNK5Catch12_GLOBAL__N_123ConsoleAssertionPrinter12printMessageEv
FN:11970,_ZNK5Catch12_GLOBAL__N_123ConsoleAssertionPrinter15printSourceInfoEv
FN:11986,_ZN5Catch12_GLOBAL__N_19makeRatioEmm
FN:11991,_ZN5Catch12_GLOBAL__N_17findMaxERmS1_S1_
FN:12000,_ZN5Catch12_GLOBAL__N_110ColumnInfoC2ERKS1_
FN:12000,_ZN5Catch12_GLOBAL__N_110ColumnInfoD2Ev
FN:12027,_ZN5Catch12_GLOBAL__N_18DurationC2EmNS1_4UnitE
FN:12045,_ZNK5Catch12_GLOBAL__N_18Duration5valueEv
FN:12059,_ZNK5Catch12_GLOBAL__N_18Duration13unitsAsStringEv
FN:12076,_ZN5Catch12_GLOBAL__N_1lsERSoRKNS0_8DurationE
FN:12082,_ZN5Catch12TablePrinterD2Ev
FN:12090,_ZN5Catch12TablePrinterC2ERSoSt6vectorINS_12_GLOBAL__N_110ColumnInfoESaIS4_EE
FN:12094,_ZNK5Catch12TablePrinter11columnInfosEv
FN:12098,_ZN5Catch12TablePrinter4openEv
FN:12108,_ZN5Catch12TablePrinter5closeEv
FN:12117,_ZN5CatchlsINSt7__cxx1112basic_stringIcSt11char_traitsIcESaIcEEEEERNS_12TablePrinterES8_RKT_
FN:12117,_ZN5CatchlsImEERNS_12TablePrinterES2_RKT_
FN:12117,_ZN5CatchlsINS_12_GLOBAL__N_18DurationEEERNS_12TablePrinterES4_RKT_
FN:12122,_ZN5CatchlsERNS_12TablePrinterENS_12_GLOBAL__N_111ColumnBreakE
FN:12145,_ZN5CatchlsERNS_12TablePrinterENS_12_GLOBAL__N_18RowBreakE
FN:12154,_ZN5Catch15ConsoleReporterC2ERKNS_14ReporterConfigE
FN:12165,_ZN5Catch15ConsoleReporter14getDescriptionB5cxx11Ev
FN:12169,_ZN5Catch15ConsoleReporter19noMatchingTestCasesERKNSt7__cxx1112basic_stringIcSt11char_traitsIcESaIcEEE
FN:12173,_ZN5Catch15ConsoleReporter17assertionStartingERKNS_13AssertionInfoE
FN:12175,_ZN5Catch15ConsoleReporter14assertionEndedERKNS_14AssertionStatsE
FN:12192,_ZN5Catch15ConsoleReporter15sectionStartingERKNS_11SectionInfoE
FN:12196,_ZN5Catch15ConsoleReporter12sectionEndedERKNS_12SectionStatsE
FN:12216,_ZN5Catch15ConsoleReporter17benchmarkStartingERKNS_13BenchmarkInfoE
FN:12231,_ZN5Catch15ConsoleReporter14benchmarkEndedERKNS_14BenchmarkStatsE
FN:12239,_ZN5Catch15ConsoleReporter13testCaseEndedERKNS_13TestCaseStatsE
FN:12244,_ZN5Catch15ConsoleReporter14testGroupEndedERKNS_14TestGroupStatsE
FN:12253,_ZN5Catch15ConsoleReporter12testRunEndedERKNS_12TestRunStatsE
FN:12260,_ZN5Catch15ConsoleReporter9lazyPrintEv
FN:12266,_ZN5Catch15ConsoleReporter37lazyPrintWithoutClosingBenchmarkTableEv
FN:12278,_ZN5Catch15ConsoleReporter16lazyPrintRunInfoEv
FN:12290,_ZN5Catch15ConsoleReporter18lazyPrintGroupInfoEv
FN:12296,_ZN5Catch15ConsoleReporter29printTestCaseAndSectionHeaderEv
FN:12320,_ZN5Catch15ConsoleReporter17printClosedHeaderERKNSt7__cxx1112basic_stringIcSt11char_traitsIcESaIcEEE
FN:12324,_ZN5Catch15ConsoleReporter15printOpenHeaderERKNSt7__cxx1112basic_stringIcSt11char_traitsIcESaIcEEE
FN:12334,_ZN5Catch15ConsoleReporter17printHeaderStringERKNSt7__cxx1112basic_stringIcSt11char_traitsIcESaIcEEEm
FN:12343,_ZN5Catch13SummaryColumnC2EOS0_
FN:12343,_ZN5Catch13SummaryColumnD2Ev
FN:12343,_ZN5Catch13SummaryColumnC2ERKS0_
FN:12345,_ZN5Catch13SummaryColumnC2ENSt7__cxx1112basic_stringIcSt11char_traitsIcESaIcEEENS_6Colour4CodeE
FN:12348,_ZN5Catch13SummaryColumn6addRowEm
FN:12368,_ZN5Catch15ConsoleReporter11printTotalsERKNS_6TotalsE
FN:12397,_ZN5Catch15ConsoleReporter15printSummaryRowERKNSt7__cxx1112basic_stringIcSt11char_traitsIcESaIcEEERKSt6vectorINS_13SummaryColumnESaISA_EEm
FN:12415,_ZN5Catch15ConsoleReporter18printTotalsDividerERKNS_6TotalsE
FN:12436,_ZN5Catch15ConsoleReporter19printSummaryDividerEv
FN:12458,_ZN5Catch12_GLOBAL__N_119getCurrentTimestampEv
FN:12484,_ZN5Catch12_GLOBAL__N_111fileNameTagERKSt6vectorINSt7__cxx1112basic_stringIcSt11char_traitsIcESaIcEEESaIS7_EE
FN:12487,_ZZN5Catch12_GLOBAL__N_111fileNameTagERKSt6vectorINSt7__cxx1112basic_stringIcSt11char_traitsIcESaIcEEESaIS7_EEENKUlRKS7_E_clESD_
FN:12494,_ZN5Catch13JunitReporterC2ERKNS_14ReporterConfigE
FN:12502,_ZN5Catch13JunitReporterD0Ev
FN:12502,_ZN5Catch13JunitReporterD2Ev
FN:12504,_ZN5Catch13JunitReporter14getDescriptionB5cxx11Ev
FN:12508,_ZN5Catch13JunitReporter19noMatchingTestCasesERKNSt7__cxx1112basic_stringIcSt11char_traitsIcESaIcEEE
FN:12510,_ZN5Catch13JunitReporter15testRunStartingERKNS_11TestRunInfoE
FN:12515,_ZN5Catch13JunitReporter17testGroupStartingERKNS_9GroupInfoE
FN:12523,_ZN5Catch13JunitReporter16testCaseStartingERKNS_12TestCaseInfoE
FN:12527,_ZN5Catch13JunitReporter14assertionEndedERKNS_14AssertionStatsE
FN:12533,_ZN5Catch13JunitReporter13testCaseEndedERKNS_13TestCaseStatsE
FN:12539,_ZN5Catch13JunitReporter14testGroupEndedERKNS_14TestGroupStatsE
FN:12545,_ZN5Catch13JunitReporter22testRunEndedCumulativeEv
FN:12549,_ZN5Catch13JunitReporter10writeGroupERKNS_22CumulativeReporterBaseIS0_E4NodeINS_14TestGroupStatsENS3_INS_13TestCaseStatsENS2_11SectionNodeEEEEEd
FN:12571,_ZN5Catch13JunitReporter13writeTestCaseERKNS_22CumulativeReporterBaseIS0_E4NodeINS_13TestCaseStatsENS2_11SectionNodeEEE
FN:12593,_ZN5Catch13JunitReporter12writeSectionERKNSt7__cxx1112basic_stringIcSt11char_traitsIcESaIcEEES8_RKNS_22CumulativeReporterBaseIS0_E11SectionNodeE
FN:12628,_ZN5Catch13JunitReporter15writeAssertionsERKNS_22CumulativeReporterBaseIS0_E11SectionNodeE
FN:12633,_ZN5Catch13JunitReporter14writeAssertionERKNS_14AssertionStatsE
FN:12690,_ZN5Catch17ListeningReporterC2Ev
FN:12695,_ZN5Catch17ListeningReporter11addListenerEOSt10unique_ptrINS_18IStreamingReporterESt14default_deleteIS2_EE
FN:12699,_ZN5Catch17ListeningReporter11addReporterEOSt10unique_ptrINS_18IStreamingReporterESt14default_deleteIS2_EE
FN:12705,_ZNK5Catch17ListeningReporter14getPreferencesEv
FN:12709,_ZN5Catch17ListeningReporter23getSupportedVerbositiesEv
FN:12713,_ZN5Catch17ListeningReporter19noMatchingTestCasesERKNSt7__cxx1112basic_stringIcSt11char_traitsIcESaIcEEE
FN:12720,_ZN5Catch17ListeningReporter17benchmarkStartingERKNS_13BenchmarkInfoE
FN:12726,_ZN5Catch17ListeningReporter14benchmarkEndedERKNS_14BenchmarkStatsE
FN:12733,_ZN5Catch17ListeningReporter15testRunStartingERKNS_11TestRunInfoE
FN:12740,_ZN5Catch17ListeningReporter17testGroupStartingERKNS_9GroupInfoE
FN:12747,_ZN5Catch17ListeningReporter16testCaseStartingERKNS_12TestCaseInfoE
FN:12754,_ZN5Catch17ListeningReporter15sectionStartingERKNS_11SectionInfoE
FN:12761,_ZN5Catch17ListeningReporter17assertionStartingERKNS_13AssertionInfoE
FN:12769,_ZN5Catch17ListeningReporter14assertionEndedERKNS_14AssertionStatsE
FN:12776,_ZN5Catch17ListeningReporter12sectionEndedERKNS_12SectionStatsE
FN:12783,_ZN5Catch17ListeningReporter13testCaseEndedERKNS_13TestCaseStatsE
FN:12790,_ZN5Catch17ListeningReporter14testGroupEndedERKNS_14TestGroupStatsE
FN:12797,_ZN5Catch17ListeningReporter12testRunEndedERKNS_12TestRunStatsE
FN:12804,_ZN5Catch17ListeningReporter8skipTestERKNS_12TestCaseInfoE
FN:12811,_ZNK5Catch17ListeningReporter7isMultiEv
FN:12827,_ZN5Catch11XmlReporterC2ERKNS_14ReporterConfigE
FN:12837,_ZN5Catch11XmlReporter14getDescriptionB5cxx11Ev
FN:12841,_ZNK5Catch11XmlReporter16getStylesheetRefB5cxx11Ev
FN:12845,_ZN5Catch11XmlReporter15writeSourceInfoERKNS_14SourceLineInfoE
FN:12851,_ZN5Catch11XmlReporter19noMatchingTestCasesERKNSt7__cxx1112basic_stringIcSt11char_traitsIcESaIcEEE
FN:12855,_ZN5Catch11XmlReporter15testRunStartingERKNS_11TestRunInfoE
FN:12865,_ZN5Catch11XmlReporter17testGroupStartingERKNS_9GroupInfoE
FN:12871,_ZN5Catch11XmlReporter16testCaseStartingERKNS_12TestCaseInfoE
FN:12885,_ZN5Catch11XmlReporter15sectionStartingERKNS_11SectionInfoE
FN:12895,_ZN5Catch11XmlReporter17assertionStartingERKNS_13AssertionInfoE
FN:12897,_ZN5Catch11XmlReporter14assertionEndedERKNS_14AssertionStatsE
FN:12971,_ZN5Catch11XmlReporter12sectionEndedERKNS_12SectionStatsE
FN:12986,_ZN5Catch11XmlReporter13testCaseEndedERKNS_13TestCaseStatsE
FN:13002,_ZN5Catch11XmlReporter14testGroupEndedERKNS_14TestGroupStatsE
FN:13012,_ZN5Catch11XmlReporter12testRunEndedERKNS_12TestRunStatsE
FN:13051,main
FN:13353,_GLOBAL__sub_I_main.cpp
FN:13353,_Z41__static_initialization_and_destruction_0ii
FNDA:0,_ZN5Catch6Detail9stringifyI9ActorInfoEENSt7__cxx1112basic_stringIcSt11char_traitsIcESaIcEEERKT_
FNDA:4,_ZN5Catch5clara6detail13BoundValueRefISt6vectorINSt7__cxx1112basic_stringIcSt11char_traitsIcESaIcEEESaIS9_EEED2Ev
FNDA:1,_ZN5Catch10DecomposerleIP5ActorEENS_7ExprLhsIRKT_EES7_
FNDA:2,_ZN5Catch8TestSpec10TagPatternC2ERKNSt7__cxx1112basic_stringIcSt11char_traitsIcESaIcEEE
FNDA:1,_ZNK5Catch10BinaryExprIRKiS2_E29streamReconstructedExpressionERSo
FNDA:2,_ZN5Catch6OptionINS_12TestCaseInfoEEC2Ev
FNDA:0,_ZN5Catch21StreamingReporterBaseINS_15CompactReporterEEC2ERKNS_14ReporterConfigE
FNDA:5,_ZN5Catch20ReusableStringStreamlsIA37_cEERS0_RKT_
FNDA:0,_ZN5Catch22CumulativeReporterBaseINS_13JunitReporterEE4NodeINS_14TestGroupStatsENS3_INS_13TestCaseStatsENS2_11SectionNodeEEEED0Ev
FNDA:90,_ZN5Catch10RunContext24handleUnfinishedSectionsEv
FNDA:511,_ZNK5Catch8TestCaseltERKS0_
FNDA:0,_ZN5Catch5clara6detail15ResultValueBaseIvEC2EOS3_
FNDA:2,_ZNK5Catch24StartupExceptionRegistry13getExceptionsEv
FNDA:0,_ZN5Catch22CumulativeReporterBaseINS_13JunitReporterEE23getSupportedVerbositiesEv
FNDA:74,_ZN5Catch21TestInvokerAsFunctionD2Ev
FNDA:0,_ZN5Catch21StreamingReporterBaseINS_15CompactReporterEE12sectionEndedERKNS_12SectionStatsE
FNDA:2,_ZN5Catch5clara6detail11BoundLambdaIZNS_21makeCommandLineParserERNS_10ConfigDataEEUlRKNSt7__cxx1112basic_stringIcSt11char_traitsIcESaIcEEEE4_ED2Ev
FNDA:6,_ZNK5Catch6Config4nameB5cxx11Ev
FNDA:2,_ZN5Catch7toLowerERKNSt7__cxx1112basic_stringIcSt11char_traitsIcESaIcEEE
FNDA:2,_ZNK5Catch6OptionImEcvbEv
FNDA:2,_ZN5Catch4listERKNS_6ConfigE
FNDA:2,_ZN5Catch5clara6detail11BoundLambdaIZNS_21makeCommandLineParserERNS_10ConfigDataEEUlRKNSt7__cxx1112basic_stringIcSt11char_traitsIcESaIcEEEE3_ED2Ev
FNDA:0,_ZN5Catch15CompactReporter12testRunEndedERKNS_12TestRunStatsE
FNDA:1508,_ZN5Catch5clara6detail20ComposableParserImplINS1_3OptEEC2ERKS4_
FNDA:0,_ZN5Catch12_GLOBAL__N_120applyFilenamesAsTagsERKNS_7IConfigE
FNDA:242,_ZNK5Catch8TestCase15getTestCaseInfoEv
FNDA:0,_ZNK5Catch5clara6detail11TokenStreamptEv
FNDA:2,_ZN5Catch7Session11runInternalEv
FNDA:0,_ZN5Catch8Matchers7MatchesERKNSt7__cxx1112basic_stringIcSt11char_traitsIcESaIcEEENS_13CaseSensitive6ChoiceE
FNDA:0,_ZN5Catch5clara6detail13LambdaInvokerINS1_11BasicResultINS1_15ParseResultTypeEEEE6invokeIZNS_21makeCommandLineParserERNS_10ConfigDataEEUlRKNSt7__cxx1112basic_stringIcSt11char_traitsIcESaIcEEEE4_SF_EES5_RKT_RKT0_
FNDA:115,_ZN5Catch16TestCaseTracking11TrackerBase8addChildERKSt10shared_ptrINS0_8ITrackerEE
FNDA:2,_ZN5Catch5clara6detail15ResultValueBaseINS1_10ParseStateEEC2ENS1_10ResultBase4TypeERKS3_
FNDA:0,_ZNK5Catch18IStreamingReporter7isMultiEv
FNDA:2,_ZN5Catch27enforceNoDuplicateTestCasesERKSt6vectorINS_8TestCaseESaIS1_EE
FNDA:0,_ZN5Catch5clara8TextFlow7ColumnsplERKNS1_6ColumnE
FNDA:0,_ZNK5Catch16ReporterRegistry12getFactoriesB5cxx11Ev
FNDA:0,_ZN5Catch9XmlWriter9writeTextERKNSt7__cxx1112basic_stringIcSt11char_traitsIcESaIcEEEb
FNDA:145,_ZN5Catch20ReusableStringStreamC2Ev
FNDA:0,_ZN5Catch19writeToDebugConsoleERKNSt7__cxx1112basic_stringIcSt11char_traitsIcESaIcEEE
FNDA:0,_ZN5Catch21StreamingReporterBaseINS_21TestEventListenerBaseEE14testGroupEndedERKNS_14TestGroupStatsE
FNDA:2,_ZN5Catch17ITagAliasRegistry3getEv
FNDA:0,_ZN5Catch12_GLOBAL__N_18DurationC2EmNS1_4UnitE
FNDA:33,_ZN5Catch12compareEqualISt6vectorIiSaIiEES3_EEbRKT_RKT0_
FNDA:20,_ZNK5Catch9StringRef4sizeEv
FNDA:74,_ZN5Catch12TestRegistry12registerTestERKNS_8TestCaseE
FNDA:0,_ZN5Catch10RunContext16popScopedMessageERKNS_11MessageInfoE
FNDA:0,_ZN5Catch17ListeningReporter17assertionStartingERKNS_13AssertionInfoE
FNDA:0,_ZN5Catch6Detail9stringifyIjEENSt7__cxx1112basic_stringIcSt11char_traitsIcESaIcEEERKT_
FNDA:20,_ZN5Catch10DecomposerleI9directionEENS_7ExprLhsIRKT_EES6_
FNDA:0,_ZN5Catch13JunitReporter19noMatchingTestCasesERKNSt7__cxx1112basic_stringIcSt11char_traitsIcESaIcEEE
FNDA:2,_ZN5Catch21StreamingReporterBaseINS_15ConsoleReporterEE15testRunStartingERKNS_11TestRunInfoE
FNDA:0,_ZNK5Catch5clara8TextFlow7Columns8iteratordeB5cxx11Ev
FNDA:2,_ZNK5Catch5clara6detail6ParserorINS1_4HelpEEES2_RKT_
FNDA:0,_ZN5Catch10isJustInfoEi
FNDA:0,_ZN5Catch5clara6detail11isOptPrefixEc
FNDA:2,_ZN5Catch12_GLOBAL__N_111IColourImplD2Ev
FNDA:2,_ZN5Catch20ReusableStringStreamlsIA36_cEERS0_RKT_
FNDA:2,_ZN5Catch12TestRunStatsD2Ev
FNDA:0,_ZNK5Catch10RunContext6configEv
FNDA:2,_ZN5Catch5clara6detail3OptC2IZNS_21makeCommandLineParserERNS_10ConfigDataEEUliE7_EERKT_RKNSt7__cxx1112basic_stringIcSt11char_traitsIcESaIcEEE
FNDA:0,_ZN5Catch17ListeningReporter23getSupportedVerbositiesEv
FNDA:0,_ZN5Catch11XmlReporter12testRunEndedERKNS_12TestRunStatsE
FNDA:0,_ZN5Catch8Matchers9StdString15ContainsMatcherD0Ev
FNDA:0,_ZNK5Catch10BinaryExprIRKP5ActorRKP11SimpleActorE29streamReconstructedExpressionERSo
FNDA:135,_ZN5Catch17AssertionReactionC2Ev
FNDA:4,_ZNK5Catch15AssertionResult10hasMessageEv
FNDA:0,_ZN5Catch11StringMakerIbvE7convertB5cxx11Eb
FNDA:0,_ZN5Catch5clara6detail11BasicResultINS1_15ParseResultTypeEED0Ev
FNDA:33,_ZN5Catch10BinaryExprIRKSt6vectorIiSaIiEES5_EC2EbS5_NS_9StringRefES5_
FNDA:1508,_ZN5Catch5clara6detail3OptC2ERKS2_
FNDA:0,_ZN5Catch24translateActiveExceptionB5cxx11Ev
FNDA:0,_ZN5Catch7Session13useConfigDataERKNS_10ConfigDataE
FNDA:4,_ZN5Catch8TestSpecC2Ev
FNDA:4,_ZN5Catch15ConsoleReporter37lazyPrintWithoutClosingBenchmarkTableEv
FNDA:0,_ZN5Catch14TestSpecParser10addPatternINS_8TestSpec11NamePatternEEEvv
FNDA:0,_ZN5CatchplB5cxx11ERKNS_9StringRefEPKc
FNDA:2,_ZN5Catch6OptionINS_11TestRunInfoEEptEv
FNDA:23,_ZNK5Catch5clara8TextFlow6Column8iteratoreqERKS3_
FNDA:8,_ZN5Catch8TestSpecD2Ev
FNDA:74,_ZN5Catch7AutoRegD2Ev
FNDA:0,_ZN5Catch21StreamingReporterBaseINS_11XmlReporterEE13testCaseEndedERKNS_13TestCaseStatsE
FNDA:0,_ZN5Catch12ratio_stringISt5ratioILl1ELl1000000000EEE6symbolB5cxx11Ev
FNDA:0,_ZNK5Catch8Matchers9StdString12RegexMatcher8describeB5cxx11Ev
FNDA:64,_ZN5Catch5clara6detail10ParserBaseC2Ev
FNDA:0,_ZN5Catch14TestSpecParser6escapeEv
FNDA:4,_ZNK5Catch15AssertionResult13getExpressionB5cxx11Ev
FNDA:2,_ZN5Catch5clara6detail3OptC2IZNS_21makeCommandLineParserERNS_10ConfigDataEEUlRKNSt7__cxx1112basic_stringIcSt11char_traitsIcESaIcEEEE4_EERKT_SD_
FNDA:2,_ZN5Catch6detail12_GLOBAL__N_110CoutStreamC2Ev
FNDA:0,_ZNK5Catch9StringRefeqERKS0_
FNDA:2,_ZN5Catch5clara6detail13BoundValueRefIiED2Ev
FNDA:0,_ZN5Catch5clara6detail11BasicResultINS1_10ParseStateEEC2IvEERKNS2_IT_EE
FNDA:0,_ZN5Catch9StringRef4swapERS0_
FNDA:430,_ZN5Catch8TestCaseD2Ev
FNDA:0,_ZN5Catch5clara6detail13LambdaInvokerIvE6invokeIZNS_21makeCommandLineParserERNS_10ConfigDataEEUlbE6_bEENS1_11BasicResultINS1_15ParseResultTypeEEERKT_RKT0_
FNDA:90,_ZN5Catch16TestCaseTracking14TrackerContext10startCycleEv
FNDA:2,_ZN5Catch12TablePrinterD2Ev
FNDA:1075,_ZN5Catch9StringRefC2EPKcm
FNDA:2,_ZN5Catch6detail12_GLOBAL__N_110CoutStreamD0Ev
FNDA:0,_ZN5Catch5clara6detail13ParserRefImplINS1_3ArgEEC2EOS4_
FNDA:0,_ZNK5Catch16AssertionHandler11allowThrowsEv
FNDA:3,_ZN5Catch10BinaryExprIRK9ActorInfoS3_ED2Ev
FNDA:0,_ZZZN5Catch21makeCommandLineParserERNS_10ConfigDataEENKUlRKNSt7__cxx1112basic_stringIcSt11char_traitsIcESaIcEEEE_clES9_ENKUlvE_clEv
FNDA:0,_ZN5Catch9XmlWriterC2ERSo
FNDA:0,_ZN5Catch18listTestsNamesOnlyERKNS_6ConfigE
FNDA:16,_ZN5Catch20ReusableStringStreamlsIA32_cEERS0_RKT_
FNDA:8,_ZNK5Catch15AssertionResult13getResultTypeEv
FNDA:20,_ZN5Catch5clara6detail12BoundFlagRefD2Ev
FNDA:6,_ZN5Catch20ReusableStringStreamlsIA23_cEERS0_RKT_
FNDA:4,_ZN5Catch5clara6detail11BasicResultINS1_10ParseStateEED2Ev
FNDA:2386,_ZN5Catch5clara6detail10ParserBaseC2ERKS2_
FNDA:32,_ZN5Catch5clara6detail17BoundValueRefBaseC2Ev
FNDA:11,_ZN5Catch5clara8TextFlow6ColumnD2Ev
FNDA:4,_ZN5Catch15ConsoleReporter15printSummaryRowERKNSt7__cxx1112basic_stringIcSt11char_traitsIcESaIcEEERKSt6vectorINS_13SummaryColumnESaISA_EEm
FNDA:0,_ZN5Catch11StringMakerINSt7__cxx1112basic_stringIwSt11char_traitsIwESaIwEEEvE7convertERKS6_
FNDA:0,_ZN5Catch5clara6detail11BoundLambdaIZNS_21makeCommandLineParserERNS_10ConfigDataEEUlRKNSt7__cxx1112basic_stringIcSt11char_traitsIcESaIcEEEE4_E8setValueESC_
FNDA:0,_ZNK5Catch21StreamingReporterBaseINS_15CompactReporterEE14getPreferencesEv
FNDA:0,_ZN5Catch14MessageBuilderC2ERKNSt7__cxx1112basic_stringIcSt11char_traitsIcESaIcEEERKNS_14SourceLineInfoENS_9ResultWas6OfTypeE
FNDA:2,_ZN5Catch10RunContextC2ERKSt10shared_ptrIKNS_7IConfigEEOSt10unique_ptrINS_18IStreamingReporterESt14default_deleteIS8_EE
FNDA:0,_ZN5Catch10RunContext13handleNonExprERKNS_13AssertionInfoENS_9ResultWas6OfTypeERNS_17AssertionReactionE
FNDA:139,_ZN5Catch11isFalseTestEi
FNDA:2,_ZN5Catch12IRegistryHubD2Ev
FNDA:8,_ZN5Catch12_GLOBAL__N_111RegistryHub16registerReporterERKNSt7__cxx1112basic_stringIcSt11char_traitsIcESaIcEEERKSt10shared_ptrINS_16IReporterFactoryEE
FNDA:0,_ZN5Catch5clara6detail11BoundLambdaIZNS_21makeCommandLineParserERNS_10ConfigDataEEUlRKNSt7__cxx1112basic_stringIcSt11char_traitsIcESaIcEEEE0_ED0Ev
FNDA:74,_ZN5Catch12makeTestCaseEPNS_12ITestInvokerERKNSt7__cxx1112basic_stringIcSt11char_traitsIcESaIcEEERKNS_11NameAndTagsERKNS_14SourceLineInfoE
FNDA:145,_ZN5Catch20ReusableStringStreamD2Ev
FNDA:0,_ZN5Catch17ListeningReporter17benchmarkStartingERKNS_13BenchmarkInfoE
FNDA:0,_ZN5Catch5clara6detail3OptaSERKS2_
FNDA:2,_ZN5Catch11StringMakerIivE7convertB5cxx11Ei
FNDA:0,_ZN5Catch12_GLOBAL__N_116AssertionPrinterD2Ev
FNDA:0,_ZZN5Catch21makeCommandLineParserERNS_10ConfigDataEENKUlRKNSt7__cxx1112basic_stringIcSt11char_traitsIcESaIcEEEE1_clES9_
FNDA:0,_ZZN5Catch5clara6detail11convertIntoERKNSt7__cxx1112basic_stringIcSt11char_traitsIcESaIcEEERbENUlcE_4_FUNEc
FNDA:4,_ZNK5Catch12_GLOBAL__N_123ConsoleAssertionPrinter5printEv
FNDA:2,_ZNK5Catch6OptionImE4someEv
FNDA:152,_ZN5Catch16TestCaseTracking14TrackerContext13completeCycleEv
FNDA:0,_ZNK5Catch5clara8TextFlow6Column5widthEv
FNDA:0,_ZNK5Catch22CumulativeReporterBaseINS_13JunitReporterEE13BySectionInfoclERKSt10shared_ptrINS2_11SectionNodeEE
FNDA:2,_ZN5Catch5clara6detail15ResultValueBaseINS1_15ParseResultTypeEEC2ENS1_10ResultBase4TypeERKS3_
FNDA:0,_ZN5Catch10RunContext13handleMessageERKNS_13AssertionInfoENS_9ResultWas6OfTypeERKNS_9StringRefERNS_17AssertionReactionE
FNDA:74,_ZN5Catch7setTagsERNS_12TestCaseInfoESt6vectorINSt7__cxx1112basic_stringIcSt11char_traitsIcESaIcEEESaIS8_EE
FNDA:2,_ZN5Catch21StreamingReporterBaseINS_15ConsoleReporterEED2Ev
FNDA:56,_ZN5Catch5clara6detail8BoundRefD2Ev
FNDA:0,_ZN5Catch6Detail9stringifyINS_14SourceLineInfoEEENSt7__cxx1112basic_stringIcSt11char_traitsIcESaIcEEERKT_
FNDA:0,_ZN5Catch22CumulativeReporterBaseINS_13JunitReporterEEC2ERKNS_14ReporterConfigE
FNDA:0,_ZN5Catch13JunitReporter13writeTestCaseERKNS_22CumulativeReporterBaseIS0_E4NodeINS_13TestCaseStatsENS2_11SectionNodeEEE
FNDA:0,_ZN5Catch8Matchers9StdString13EqualsMatcherC2ERKNS1_11CasedStringE
FNDA:0,_ZN5Catch20ReusableStringStreamlsIA16_cEERS0_RKT_
FNDA:0,_ZN5Catch9XmlWriter14writeAttributeERKNSt7__cxx1112basic_stringIcSt11char_traitsIcESaIcEEES8_
FNDA:0,_ZN5Catch5clara6detail11BasicResultIvED0Ev
FNDA:189,_ZN5Catch16TestCaseTracking8ITrackerC2Ev
FNDA:0,_ZN5Catch12_GLOBAL__N_115PosixColourImplD0Ev
FNDA:300,_ZNK5Catch6CountsmiERKS0_
FNDA:0,_ZN5Catch8TagAliasC2ERKNSt7__cxx1112basic_stringIcSt11char_traitsIcESaIcEEENS_14SourceLineInfoE
FNDA:3,_ZN5Catch10DecomposerleI9ActorInfoEENS_7ExprLhsIRKT_EES6_
FNDA:2,_ZN5Catch8TestSpec15ExcludedPatternC2ERKSt10shared_ptrINS0_7PatternEE
FNDA:0,_ZN5Catch8Matchers9StdString11CasedStringD2Ev
FNDA:0,_ZN5Catch5clara6detail20ComposableParserImplINS1_7ExeNameEED0Ev
FNDA:0,_ZN5CatchlsImEERNS_12TablePrinterES2_RKT_
FNDA:0,_ZN5Catch20ReusableStringStreamlsIA22_cEERS0_RKT_
FNDA:2,_ZN5Catch5clara6detail20ComposableParserImplINS1_7ExeNameEEaSEOS4_
FNDA:2,_ZN5Catch14TestSpecParser12startNewModeENS0_4ModeEm
FNDA:0,_ZN5Catch8Matchers4Impl18MatcherUntypedBaseD2Ev
FNDA:2,_ZNK5Catch6Config9verbosityEv
FNDA:180,_ZN5Catch16TestCaseTracking14SectionTracker7tryOpenEv
FNDA:3,_ZN5Catch7ExprLhsIRKiEgeIiEEKNS_10BinaryExprIS2_RKT_EES8_
FNDA:281,_ZNK5Catch16TestCaseTracking14SectionTracker16isSectionTrackerEv
FNDA:0,_ZN5Catch22CumulativeReporterBaseINS_13JunitReporterEE13BySectionInfoC2ERKNS_11SectionInfoE
FNDA:2,_ZN5Catch20ReusableStringStreamlsIA45_cEERS0_RKT_
FNDA:0,_ZN5Catch22CumulativeReporterBaseINS_13JunitReporterEED2Ev
FNDA:90,_ZN5Catch10RunContext14runCurrentTestERNSt7__cxx1112basic_stringIcSt11char_traitsIcESaIcEEES7_
FNDA:6,_ZN5Catch5clara6detail3OptC2INSt7__cxx1112basic_stringIcSt11char_traitsIcESaIcEEEEERT_RKS9_
FNDA:0,_ZNK5Catch6Config8showHelpEv
FNDA:0,_ZN5Catch20ReusableStringStreamlsIPKcEERS0_RKT_
FNDA:2,_ZN5Catch9sortTestsERKNS_7IConfigERKSt6vectorINS_8TestCaseESaIS4_EE
FNDA:0,_ZN5Catch5clara6detail13BoundValueRefISt6vectorINSt7__cxx1112basic_stringIcSt11char_traitsIcESaIcEEESaIS9_EEE8setValueERKS9_
FNDA:0,_ZN5Catch6Detail9stringifyImEENSt7__cxx1112basic_stringIcSt11char_traitsIcESaIcEEERKT_
FNDA:0,_ZNK5Catch10BinaryExprIRKSt6vectorIiSaIiEES5_E29streamReconstructedExpressionERSo
FNDA:4,_ZN5Catch15ConsoleReporter9lazyPrintEv
FNDA:2,_ZN5Catch14cleanUpContextEv
FNDA:20,_ZN5Catch5clara6detail3OptC2ERb
FNDA:2,_ZN5Catch15IMutableContextC2Ev
FNDA:0,_ZN12_GLOBAL__N_17convertIfEENS_9ConverterIT_EES2_
FNDA:0,_ZN5Catch17ListeningReporter15testRunStartingERKNS_11TestRunInfoE
FNDA:0,_ZNK5Catch7TagInfo3allB5cxx11Ev
FNDA:20,_ZN5Catch7ExprLhsIRK9directionEC2ES3_
FNDA:4,_ZN5CatchlsERSoRKNS_9StringRefE
FNDA:0,_ZN5Catch20ReusableStringStreamlsIA19_cEERS0_RKT_
FNDA:38,_ZN5Catch10DecomposerleIiEENS_7ExprLhsIRKT_EES5_
FNDA:0,_ZNK5Catch16TestCaseTracking11TrackerBase14isIndexTrackerEv
FNDA:1031,_ZNK5Catch5clara8TextFlow6Column8iterator4lineB5cxx11Ev
FNDA:2,_ZN5Catch21StreamingReporterBaseINS_15ConsoleReporterEE14testGroupEndedERKNS_14TestGroupStatsE
FNDA:2,_ZN5Catch5clara6detail15BoundFlagLambdaIZNS1_4HelpC4ERbEUlbE_EC2ERKS5_
FNDA:0,_ZN5Catch14MessageBuilderlsINSt7__cxx1112basic_stringIcSt11char_traitsIcESaIcEEEEERS0_RKT_
FNDA:0,_ZNK5Catch12TestCaseInfo8isHiddenEv
FNDA:74,_ZN5Catch12_GLOBAL__N_111RegistryHub12registerTestERKNS_8TestCaseE
FNDA:2,_Z41__static_initialization_and_destruction_0ii
FNDA:2,_ZN5Catch17ReporterRegistrarINS_15CompactReporterEE15ReporterFactoryD2Ev
FNDA:2,_ZN5Catch5clara6detail13ParserRefImplINS1_3OptEEC2IZNS_21makeCommandLineParserERNS_10ConfigDataEEUlRKNSt7__cxx1112basic_stringIcSt11char_traitsIcESaIcEEEE2_EERKT_SF_
FNDA:2,_ZN5Catch8TestSpec10TagPatternD2Ev
FNDA:0,_ZN5Catch20ReusableStringStreamlsIA5_cEERS0_RKT_
FNDA:135,_ZN5Catch20ITransientExpressionC2Ebb
FNDA:0,_ZN5Catch12TestRegistryD0Ev
FNDA:2,_ZN5Catch17ReporterRegistrarINS_15CompactReporterEEC2ERKNSt7__cxx1112basic_stringIcSt11char_traitsIcESaIcEEE
FNDA:0,_ZNK5Catch15WildcardPattern10adjustCaseERKNSt7__cxx1112basic_stringIcSt11char_traitsIcESaIcEEE
FNDA:0,_ZNK5Catch5clara6detail11BasicResultIvE9enforceOkEv
FNDA:0,_ZN5Catch8Matchers4Impl11MatcherBaseIdED0Ev
FNDA:0,_ZN5Catch5clara8TextFlow7ColumnsC2Ev
FNDA:2,_ZN5Catch17ReporterRegistrarINS_13JunitReporterEE15ReporterFactoryD2Ev
FNDA:148,_ZNK5Catch5Timer17getElapsedSecondsEv
FNDA:2,_ZNK5Catch6Config6streamEv
FNDA:4,_ZN5Catch5clara6detail10ResultBaseC2ENS2_4TypeE
FNDA:0,_ZN5Catch5clara6detail20ComposableParserImplINS1_3ArgEEC2EOS4_
FNDA:0,_ZN5Catch8Matchers4Impl11MatcherBaseINSt7__cxx1112basic_stringIcSt11char_traitsIcESaIcEEEEC2Ev
FNDA:152,_ZN5Catch12SectionStatsD2Ev
FNDA:458,_ZN5Catch9StringRefaSERKS0_
FNDA:9,_ZN5Catch7ExprLhsIRKmEC2ES2_
FNDA:4,_ZN5Catch5clara6detail6ParserC2Ev
FNDA:0,_ZN5Catch5clara6detail11BasicResultIvE2okEv
FNDA:2,_ZN5Catch21StreamingReporterBaseINS_15ConsoleReporterEEC2ERKNS_14ReporterConfigE
FNDA:3,_ZNK5Catch10BinaryExprIRK9directionS3_E29streamReconstructedExpressionERSo
FNDA:24,_ZN5Catch5clara6detail16BoundFlagRefBaseD2Ev
FNDA:0,_ZN5Catch8Matchers4Impl13MatcherMethodIdEC2Ev
FNDA:4,_ZNK5Catch12TestCaseInfo8okToFailEv
FNDA:0,_ZN5Catch20ReusableStringStreamlsIA2_cEERS0_RKT_
FNDA:0,_ZZN5Catch21makeCommandLineParserERNS_10ConfigDataEENKUlRKNSt7__cxx1112basic_stringIcSt11char_traitsIcESaIcEEEE4_clES9_
FNDA:0,_ZN5Catch17ListeningReporter15sectionStartingERKNS_11SectionInfoE
FNDA:2,_ZNK5Catch5clara6detail4Args7exeNameB5cxx11Ev
FNDA:0,_ZN5Catch5clara6detail11HelpColumnsC2EOS2_
FNDA:0,_ZN5Catch8Matchers9StdString11CasedStringC2ERKNSt7__cxx1112basic_stringIcSt11char_traitsIcESaIcEEENS_13CaseSensitive6ChoiceE
FNDA:1,_ZN5Catch7ExprLhsIbEeqEb
FNDA:2,_ZNK5Catch5clara6detail11BasicResultINS1_10ParseStateEEcvbEv
FNDA:148,_ZNK5Catch5Timer21getElapsedNanosecondsEv
FNDA:0,_ZN5Catch5clara6detail11HelpColumnsaSERKS2_
FNDA:90,_ZNK5Catch8TestCase6invokeEv
FNDA:0,_ZN5Catch22CumulativeReporterBaseINS_13JunitReporterEE16testCaseStartingERKNS_12TestCaseInfoE
FNDA:0,_ZN5Catch10BinaryExprIbbED0Ev
FNDA:2,_ZN5Catch6OptionImE5resetEv
FNDA:0,_ZNK5Catch27ExceptionTranslatorRegistry24translateActiveExceptionB5cxx11Ev
FNDA:0,_ZN5Catch15ConsoleReporter17printClosedHeaderERKNSt7__cxx1112basic_stringIcSt11char_traitsIcESaIcEEE
FNDA:0,_ZN5Catch8IContextD0Ev
FNDA:0,_ZN5Catch5clara6detail15BoundFlagLambdaIZNS_21makeCommandLineParserERNS_10ConfigDataEEUlbE6_ED0Ev
FNDA:0,_ZN5Catch9XmlWriter14writeAttributeIjEERS0_RKNSt7__cxx1112basic_stringIcSt11char_traitsIcESaIcEEERKT_
FNDA:2,_ZN5Catch12_GLOBAL__N_119useColourOnPlatformEv
FNDA:8,_ZN5Catch13SummaryColumnC2ENSt7__cxx1112basic_stringIcSt11char_traitsIcESaIcEEENS_6Colour4CodeE
FNDA:0,_ZN5Catch21StreamingReporterBaseINS_15CompactReporterEE23getSupportedVerbositiesEv
FNDA:8,_ZN5Catch9GroupInfoD2Ev
FNDA:2,_ZN5Catch15IMutableContext13createContextEv
FNDA:0,_ZNK5Catch8Matchers4Impl18MatcherUntypedBase8toStringB5cxx11Ev
FNDA:0,_ZN5Catch10fpToStringIfEENSt7__cxx1112basic_stringIcSt11char_traitsIcESaIcEEET_i
FNDA:1,_ZN5Catch10BinaryExprIbbED2Ev
FNDA:0,_ZN5Catch12_GLOBAL__N_111RegistryHub30getExceptionTranslatorRegistryEv
FNDA:0,_ZN12_GLOBAL__N_111reportFatalEPKc
FNDA:2,_ZN5Catch8LazyStatINS_11TestRunInfoEED2Ev
FNDA:0,_ZN5Catch22CumulativeReporterBaseINS_13JunitReporterEE12testRunEndedERKNS_12TestRunStatsE
FNDA:370,_ZN5Catch12TestCaseInfoC2ERKS0_
FNDA:0,_ZN5Catch8TestSpec11NamePatternC2ERKNSt7__cxx1112basic_stringIcSt11char_traitsIcESaIcEEE
FNDA:2,_ZN5Catch28IExceptionTranslatorRegistryC2Ev
FNDA:0,_ZN5Catch16RedirectedStdErrC2Ev
FNDA:74,_ZN5Catch12ITestInvokerC2Ev
FNDA:0,_ZNK5Catch21StreamingReporterBaseINS_21TestEventListenerBaseEE14getPreferencesEv
FNDA:0,_ZN5Catch15ConsoleReporter17benchmarkStartingERKNS_13BenchmarkInfoE
FNDA:0,_ZN5Catch13TestCaseStatsC2ERKS0_
FNDA:0,_ZN5Catch13JunitReporter15testRunStartingERKNS_11TestRunInfoE
FNDA:2,_ZN5Catch5clara6detail11BoundLambdaIZNS_21makeCommandLineParserERNS_10ConfigDataEEUlRKNSt7__cxx1112basic_stringIcSt11char_traitsIcESaIcEEEE0_ED2Ev
FNDA:0,_ZNK5Catch5clara6detail11BasicResultINS1_15ParseResultTypeEEcvbEv
FNDA:0,_ZN5Catch20ReusableStringStreamlsIFRSt8ios_baseS3_EEERS0_RKT_
FNDA:0,_ZN5Catch11StringMakerIhvE7convertB5cxx11Eh
FNDA:0,_ZN5Catch5clara6detail11BasicResultIvEC2ENS1_10ResultBase4TypeERKNSt7__cxx1112basic_stringIcSt11char_traitsIcESaIcEEE
FNDA:0,_ZN5Catch7SectionD0Ev
FNDA:152,_ZN5Catch16TestCaseTracking11TrackerBase10moveToThisEv
FNDA:435,_ZN5Catch13StringStreams8instanceEv
FNDA:0,_ZN5Catch8Matchers4Impl13MatcherMethodINSt7__cxx1112basic_stringIcSt11char_traitsIcESaIcEEEEC2Ev
FNDA:0,_ZN5Catch17ReporterRegistrarINS_13JunitReporterEE15ReporterFactoryD0Ev
FNDA:6,_ZN5Catch5clara6detail10ParserBaseaSERKS2_
FNDA:0,_ZN5Catch5clara6detail11BasicResultIvED2Ev
FNDA:0,_ZN5Catch11XmlReporter17assertionStartingERKNS_13AssertionInfoE
FNDA:152,_ZNK5Catch6Config13showDurationsEv
FNDA:0,_ZN5Catch7IRunnerD0Ev
FNDA:0,_ZN5Catch5clara8TextFlow7Columns8iteratorC2ERKS2_
FNDA:2,_ZN5Catch15ConsoleReporter18printTotalsDividerERKNS_6TotalsE
FNDA:74,_ZN5Catch21TestInvokerAsFunctionD0Ev
FNDA:0,_ZN5Catch12IRegistryHubD0Ev
FNDA:8,_ZN5Catch16IReporterFactoryC2Ev
FNDA:16,_ZN5Catch14LazyExpressionC2ERKS0_
FNDA:0,_ZN5Catch13JunitReporter10writeGroupERKNS_22CumulativeReporterBaseIS0_E4NodeINS_14TestGroupStatsENS3_INS_13TestCaseStatsENS2_11SectionNodeEEEEEd
FNDA:0,_ZN5Catch5clara6detail20ComposableParserImplINS1_3OptEED0Ev
FNDA:0,_ZN5Catch9XmlWriter14writeAttributeINS_9StringRefEEERS0_RKNSt7__cxx1112basic_stringIcSt11char_traitsIcESaIcEEERKT_
FNDA:314,_ZN5Catch7Context16getResultCaptureEv
FNDA:0,_ZN5Catch8Matchers8Floating16WithinAbsMatcherD0Ev
FNDA:0,_ZN5Catch6Detail9stringifyIcEENSt7__cxx1112basic_stringIcSt11char_traitsIcESaIcEEERKT_
FNDA:2,_ZN5Catch5clara6detail6ParseraSEOS2_
FNDA:2,_ZN5Catch8TestSpec15ExcludedPatternD2Ev
FNDA:0,_ZN5Catch13rangeToStringISt6vectorIiSaIiEEEENSt7__cxx1112basic_stringIcSt11char_traitsIcESaIcEEERKT_
FNDA:0,_ZN5Catch8Matchers9WithinULPEdi
FNDA:1,_ZN5Catch12compareEqualIP5ActorP11SimpleActorEEbRKT_RKT0_
FNDA:414,_ZN5Catch16TestCaseTracking11TrackerBase14TrackerHasNameC2EOS2_
FNDA:2,_ZN5Catch5clara6detail11BoundLambdaIZNS_21makeCommandLineParserERNS_10ConfigDataEEUlRKNSt7__cxx1112basic_stringIcSt11char_traitsIcESaIcEEEE1_EC2ERKSD_
FNDA:0,_ZNK5Catch8TestSpec10hasFiltersEv
FNDA:0,_ZNK5Catch17ReporterRegistrarINS_15ConsoleReporterEE15ReporterFactory14getDescriptionB5cxx11Ev
FNDA:486,_ZN5Catch11SectionInfoC2ERKS0_
FNDA:8,_ZN5Catch16ReporterRegistry16registerReporterERKNSt7__cxx1112basic_stringIcSt11char_traitsIcESaIcEEERKSt10shared_ptrINS_16IReporterFactoryEE
FNDA:0,_ZN5Catch8Matchers9WithinULPEfi
FNDA:0,_ZNK5Catch9StringRefneERKS0_
FNDA:0,_ZNK5Catch17ReporterRegistrarINS_11XmlReporterEE15ReporterFactory6createERKNS_14ReporterConfigE
FNDA:3,_ZN5Catch10RunContext17sectionEndedEarlyERKNS_14SectionEndInfoE
FNDA:0,_ZZN5Catch5clara6detail11convertIntoERKNSt7__cxx1112basic_stringIcSt11char_traitsIcESaIcEEERbENKUlcE_clEc
FNDA:0,_ZN5Catch8Matchers9StdString17StringMatcherBaseD2Ev
FNDA:0,_ZN5Catch18IStreamingReporterD0Ev
FNDA:0,_ZN5Catch13JunitReporterD0Ev
FNDA:0,_ZN5Catch17ListeningReporter11addReporterEOSt10unique_ptrINS_18IStreamingReporterESt14default_deleteIS2_EE
FNDA:0,_ZNK5Catch10BinaryExprIRK9ActorInfoS3_E29streamReconstructedExpressionERSo
FNDA:0,_ZNK5Catch8TestCase8withNameERKNSt7__cxx1112basic_stringIcSt11char_traitsIcESaIcEEE
FNDA:2,_ZN5Catch24StartupExceptionRegistryC2Ev
FNDA:4,_ZN5Catch6OptionINS_15AssertionResultEEaSERKS1_
FNDA:0,_ZN5Catch12_GLOBAL__N_113hexEscapeCharERSoh
FNDA:2,_ZN5Catch17ITestCaseRegistryD2Ev
FNDA:2,_ZN5Catch5clara6detail11BoundLambdaIZNS_21makeCommandLineParserERNS_10ConfigDataEEUlRKNSt7__cxx1112basic_stringIcSt11char_traitsIcESaIcEEEE_EC2ERKSD_
FNDA:0,_ZNK5Catch5clara6detail11BasicResultIvE4typeEv
FNDA:0,_ZN5Catch11XmlReporter17testGroupStartingERKNS_9GroupInfoE
FNDA:2,_ZN5Catch5clara6detail13BoundValueRefINSt7__cxx1112basic_stringIcSt11char_traitsIcESaIcEEEE8setValueERKS8_
FNDA:2,_ZN5CatchlsERSoRKNS_7VersionE
FNDA:0,_ZN5Catch13JunitReporter12writeSectionERKNSt7__cxx1112basic_stringIcSt11char_traitsIcESaIcEEES8_RKNS_22CumulativeReporterBaseIS0_E11SectionNodeE
FNDA:6,_ZN5Catch20ReusableStringStreamlsI9directionEERS0_RKT_
FNDA:0,_ZN12_GLOBAL__N_17convertIdEENS_9ConverterIT_EES2_
FNDA:0,_ZN5Catch5clara8TextFlowlsERSoRKNS1_7ColumnsE
FNDA:3,_ZN5Catch14SectionEndInfoC2EOS0_
FNDA:0,_ZN5Catch20ReusableStringStreamlsIfEERS0_RKT_
FNDA:2,_ZN5Catch20ReusableStringStreamlsIA49_cEERS0_RKT_
FNDA:2,_ZN5Catch5clara6detail3OptC2ISt6vectorINSt7__cxx1112basic_stringIcSt11char_traitsIcESaIcEEESaISA_EEEERT_RKSA_
FNDA:0,_ZN5Catch8Matchers9StdString15EndsWithMatcherD2Ev
FNDA:1,_ZN5Catch20ReusableStringStreamlsIA18_cEERS0_RKT_
FNDA:135,_ZN5Catch20ITransientExpressionD2Ev
FNDA:207,_ZN5Catch16TestCaseTracking14SectionTracker7acquireERNS0_14TrackerContextERKNS0_15NameAndLocationE
FNDA:0,_ZN5Catch5clara6detail13LambdaInvokerINS1_11BasicResultINS1_15ParseResultTypeEEEE6invokeIZNS_21makeCommandLineParserERNS_10ConfigDataEEUlRKNSt7__cxx1112basic_stringIcSt11char_traitsIcESaIcEEEE5_SF_EES5_RKT_RKT0_
FNDA:7,_ZN5Catch10DecomposerleEb
FNDA:2,_ZN5Catch17IReporterRegistryC2Ev
FNDA:0,_ZNK5Catch9StringRef18numberOfCharactersEv
FNDA:2,_ZN5Catch14toLowerInPlaceERNSt7__cxx1112basic_stringIcSt11char_traitsIcESaIcEEE
FNDA:0,_ZNK5Catch11MessageInfoeqERKS0_
FNDA:0,_ZN5Catch17ListeningReporter17testGroupStartingERKNS_9GroupInfoE
FNDA:0,_ZN5Catch5clara6detail13LambdaInvokerIvE6invokeIZNS_21makeCommandLineParserERNS_10ConfigDataEEUliE7_iEENS1_11BasicResultINS1_15ParseResultTypeEEERKT_RKT0_
FNDA:0,_ZN5Catch9XmlWriterD2Ev
FNDA:2,_ZN5Catch7SessionD2Ev
FNDA:0,_ZN5Catch16TestCaseTracking14SectionTrackerD0Ev
FNDA:0,_ZN5Catch8Matchers4Impl18MatcherUntypedBaseD0Ev
FNDA:0,_ZN5Catch12_GLOBAL__N_123estimateClockResolutionEv
FNDA:0,_ZN5Catch21StreamingReporterBaseINS_21TestEventListenerBaseEE15sectionStartingERKNS_11SectionInfoE
FNDA:0,_ZN5Catch17ReporterRegistrarINS_15ConsoleReporterEE15ReporterFactoryD0Ev
FNDA:0,_ZNK5Catch13StreamEndStoppsB5cxx11Ev
FNDA:0,_ZN5Catch11StringMakerIdvE7convertB5cxx11Ed
FNDA:0,_ZN5Catch5clara6detail11BoundLambdaIZNS_21makeCommandLineParserERNS_10ConfigDataEEUlbE8_E8setValueERKNSt7__cxx1112basic_stringIcSt11char_traitsIcESaIcEEE
FNDA:0,_ZN5Catch21StreamingReporterBaseINS_15CompactReporterEED0Ev
FNDA:2,_ZN5Catch7IRunnerD2Ev
FNDA:0,_ZN5Catch21StreamingReporterBaseINS_21TestEventListenerBaseEE15testRunStartingERKNS_11TestRunInfoE
FNDA:2,_ZN5Catch5clara6detail3OptC2IZNS_21makeCommandLineParserERNS_10ConfigDataEEUlbE8_EERKT_RKNSt7__cxx1112basic_stringIcSt11char_traitsIcESaIcEEE
FNDA:4,_ZN5Catch15ConsoleReporter14assertionEndedERKNS_14AssertionStatsE
FNDA:0,_ZN5Catch6detail12_GLOBAL__N_113StreamBufImplINS1_17OutputDebugWriterELm256EEC2Ev
FNDA:11,_ZNK5Catch5clara8TextFlow6Column5beginEv
FNDA:4,_ZNK5Catch15AssertionResult13getSourceInfoEv
FNDA:0,_ZNK5Catch12_GLOBAL__N_18Duration5valueEv
FNDA:0,_ZNK5Catch8Matchers9StdString11CasedString12adjustStringERKNSt7__cxx1112basic_stringIcSt11char_traitsIcESaIcEEE
FNDA:74,_ZN5Catch16TestCaseTracking14TrackerContext8startRunEv
FNDA:199,_ZN5Catch11NonCopyableD2Ev
FNDA:0,_ZN5Catch12_GLOBAL__N_119getCurrentTimestampEv
FNDA:0,_ZN5Catch10BinaryExprIRK9ActorInfoS3_ED0Ev
FNDA:0,_ZN5Catch16IReporterFactoryD0Ev
FNDA:0,_ZN5Catch8Matchers9StdString17StringMatcherBaseC2ERKNSt7__cxx1112basic_stringIcSt11char_traitsIcESaIcEEERKNS1_11CasedStringE
FNDA:0,_ZN5Catch7TagInfoC2Ev
FNDA:0,_ZN5Catch16AssertionHandler34handleExceptionNotThrownAsExpectedEv
FNDA:0,_ZNK5Catch8Matchers9StdString17StartsWithMatcher5matchERKNSt7__cxx1112basic_stringIcSt11char_traitsIcESaIcEEE
FNDA:8,_ZN5Catch20ReusableStringStreamlsIA30_cEERS0_RKT_
FNDA:8,_ZN5Catch5clara6detail11TokenStreamC2ERKS2_
FNDA:0,_ZN5Catch22CumulativeReporterBaseINS_13JunitReporterEE14testGroupEndedERKNS_14TestGroupStatsE
FNDA:4,_ZN5Catch12_GLOBAL__N_123ConsoleAssertionPrinterD2Ev
FNDA:0,_ZNK5Catch5clara6detail3Opt7isMatchERKNSt7__cxx1112basic_stringIcSt11char_traitsIcESaIcEEE
FNDA:2,_ZN5Catch5clara6detail13ParserRefImplINS1_3OptEEC2IZNS_21makeCommandLineParserERNS_10ConfigDataEEUlRKNSt7__cxx1112basic_stringIcSt11char_traitsIcESaIcEEEE0_EERKT_SF_
FNDA:0,_ZN5Catch5clara6detail5TokenaSEOS2_
FNDA:0,_ZN5Catch5clara6detail20ComposableParserImplINS1_3OptEEaSERKS4_
FNDA:0,_ZN5Catch8TestSpec6FilterC2EOS1_
FNDA:0,_ZN5Catch10RunContext33handleUnexpectedInflightExceptionERKNS_13AssertionInfoERKNSt7__cxx1112basic_stringIcSt11char_traitsIcESaIcEEERNS_17AssertionReactionE
FNDA:0,_ZN5Catch8Matchers9StdString12RegexMatcherD2Ev
FNDA:8,_ZN5CatchpLERNSt7__cxx1112basic_stringIcSt11char_traitsIcESaIcEEERKNS_9StringRefE
FNDA:3,_ZN5Catch12compareEqualI9ActorInfoS1_EEbRKT_RKT0_
FNDA:74,_ZNK5Catch6TotalsmiERKS0_
FNDA:0,_ZN5Catch11XmlReporter13testCaseEndedERKNS_13TestCaseStatsE
FNDA:0,_ZN5Catch9XmlWriter10endElementEv
FNDA:0,_ZN5Catch16TagAliasRegistry3addERKNSt7__cxx1112basic_stringIcSt11char_traitsIcESaIcEEES8_RKNS_14SourceLineInfoE
FNDA:0,_ZNK5Catch5clara6detail3Opt14getHelpColumnsEv
FNDA:0,_ZN5Catch13JunitReporter14writeAssertionERKNS_14AssertionStatsE
FNDA:0,_ZNK5Catch16TestCaseTracking12IndexTracker5indexEv
FNDA:12,_ZN5Catch5clara8TextFlow6Column8iteratorppEv
FNDA:6,_ZNK5Catch6Config8runOrderEv
FNDA:0,_ZNK5Catch12_GLOBAL__N_116AssertionPrinter15printSourceInfoEv
FNDA:0,_ZN5Catch5clara6detail11HelpColumnsaSEOS2_
FNDA:2,_ZN5Catch14TestSpecParser9addFilterEv
FNDA:0,_ZN5Catch21StreamingReporterBaseINS_11XmlReporterEEC2ERKNS_14ReporterConfigE
FNDA:2,_ZNK5Catch6detail12_GLOBAL__N_110CoutStream6streamEv
FNDA:2,_ZN5Catch19ReporterPreferencesC2Ev
FNDA:0,_ZN5Catch12_GLOBAL__N_115parseSpecialTagERKNSt7__cxx1112basic_stringIcSt11char_traitsIcESaIcEEE
FNDA:0,_ZN5Catch11XmlReporter12sectionEndedERKNS_12SectionStatsE
FNDA:0,_ZNK5Catch12TestRegistry11getAllTestsEv
FNDA:0,_ZNK5Catch5clara6detail8BoundRef11isContainerEv
FNDA:112,_ZN5Catch5clara6detail6ParserC2ERKS2_
FNDA:1,_ZN5Catch16TestCaseTracking11TrackerBase4failEv
FNDA:0,_ZN5Catch11StringMakerIPcvE7convertB5cxx11ES1_
FNDA:0,_ZN5Catch16TestCaseTracking14TrackerContext8instanceEv
FNDA:0,_ZN5Catch9XmlWriter18writeStylesheetRefERKNSt7__cxx1112basic_stringIcSt11char_traitsIcESaIcEEE
FNDA:2,_ZN5Catch12_GLOBAL__N_111RegistryHubD0Ev
FNDA:6,_ZN5Catch14TestSpecParser9visitCharEc
FNDA:56,_ZN5Catch5clara6detail8BoundRefC2Ev
FNDA:262,_ZNK5Catch16TestCaseTracking11TrackerBase15nameAndLocationEv
FNDA:2,_ZN5Catch5clara6detail11TokenStreamC2ERKNS1_4ArgsE
FNDA:2,_ZN5Catch5clara6detail11BoundLambdaIZNS_21makeCommandLineParserERNS_10ConfigDataEEUlRKNSt7__cxx1112basic_stringIcSt11char_traitsIcESaIcEEEE1_ED2Ev
FNDA:0,_ZN5Catch9XmlEncodeD2Ev
FNDA:14,_ZN5Catch13SummaryColumnC2EOS0_
FNDA:3,_ZN5Catch7ExprLhsIRK9ActorInfoEeqIS1_EEKNS_10BinaryExprIS3_RKT_EES9_
FNDA:2,_ZN5Catch6OptionINS_12TestCaseInfoEED2Ev
FNDA:0,_ZN5Catch11StringMakerINS_14SourceLineInfoEvE7convertIS1_EENSt9enable_ifIXsrNS_6Detail18IsStreamInsertableIT_EE5valueENSt7__cxx1112basic_stringIcSt11char_traitsIcESaIcEEEE4typeERKS7_
FNDA:0,_ZN5Catch9UnaryExprIbED0Ev
FNDA:0,_ZN5Catch5clara6detail15BoundFlagLambdaIZNS1_4HelpC4ERbEUlbE_E7setFlagEb
FNDA:2,_ZN5Catch5clara6detail13ParserRefImplINS1_3OptEEC2IZNS_21makeCommandLineParserERNS_10ConfigDataEEUlRKNSt7__cxx1112basic_stringIcSt11char_traitsIcESaIcEEEE1_EERKT_SF_
FNDA:0,_ZN5Catch5clara6detail20ComposableParserImplINS1_3ArgEED0Ev
FNDA:0,_ZN5Catch6detail12_GLOBAL__N_113StreamBufImplINS1_17OutputDebugWriterELm256EE4syncEv
FNDA:4,_ZN5Catch14AssertionStatsD2Ev
FNDA:2,_ZN5Catch7SessionC2Ev
FNDA:0,_ZN5CatchlsERSoRKNS_9XmlEncodeE
FNDA:0,_ZN5Catch21StreamingReporterBaseINS_21TestEventListenerBaseEE12sectionEndedERKNS_12SectionStatsE
FNDA:2,_ZN5Catch8LazyStatINS_9GroupInfoEEaSERKS1_
FNDA:2,_ZNK5Catch12_GLOBAL__N_111RegistryHub19getTestCaseRegistryEv
FNDA:0,_ZN5Catch6detail12_GLOBAL__N_114DebugOutStreamD2Ev
FNDA:0,_ZN5Catch5clara6detail11BasicResultINS1_15ParseResultTypeEEC2ENS1_10ResultBase4TypeERKNSt7__cxx1112basic_stringIcSt11char_traitsIcESaIcEEE
FNDA:32,_ZN5Catch12compareEqualIiiEEbRKT_RKT0_
FNDA:74,_ZN5Catch7AutoRegC2EPNS_12ITestInvokerERKNS_14SourceLineInfoERKNS_9StringRefERKNS_11NameAndTagsE
FNDA:2,_ZN5Catch21getAllTestCasesSortedERKNS_7IConfigE
FNDA:0,_ZNK5Catch8Matchers9StdString17StringMatcherBase8describeB5cxx11Ev
FNDA:0,_ZN5Catch15ConsoleReporter14getDescriptionB5cxx11Ev
FNDA:0,_ZZN5Catch21makeCommandLineParserERNS_10ConfigDataEENKUlRKNSt7__cxx1112basic_stringIcSt11char_traitsIcESaIcEEEE_clES9_
FNDA:62,_ZN5Catch10RunContext12sectionEndedERKNS_14SectionEndInfoE
FNDA:2,_ZN5Catch8LazyStatINS_12TestCaseInfoEED2Ev
FNDA:10,_ZN5Catch5clara6detail11TokenStreamD2Ev
FNDA:0,_ZNK5Catch6Detail6ApproxngEv
FNDA:4,_ZN5Catch7ExprLhsIRK9directionEneIS1_EEKNS_10BinaryExprIS3_RKT_EES9_
FNDA:145,_ZN5Catch13StringStreams7releaseEm
FNDA:0,_ZN5Catch11StringMakerIP11SimpleActorvE7convertIS1_EENSt7__cxx1112basic_stringIcSt11char_traitsIcESaIcEEEPT_
FNDA:0,_ZN5Catch5clara6detail12BoundFlagRefD0Ev
FNDA:0,_ZN5Catch22CumulativeReporterBaseINS_13JunitReporterEED0Ev
FNDA:0,_ZNK5Catch5clara6detail6Parser8validateEv
FNDA:2,_ZNK5Catch5clara6detail6ParserorINS1_3ArgEEES2_RKT_
FNDA:0,_ZN5Catch15WildcardPatternD0Ev
FNDA:0,_ZNK5Catch5clara6detail8BoundRef6isFlagEv
FNDA:0,_ZN5Catch9MatchExprINSt7__cxx1112basic_stringIcSt11char_traitsIcESaIcEEERKNS_8Matchers4Impl11MatcherBaseIS6_EEED0Ev
FNDA:0,_ZN5Catch5clara6detail11BasicResultIvE10logicErrorERKNSt7__cxx1112basic_stringIcSt11char_traitsIcESaIcEEE
FNDA:6,_ZN5Catch12_GLOBAL__N_19makeRatioEmm
FNDA:0,_ZN5Catch9XmlWriter15ensureTagClosedEv
FNDA:0,_ZN5Catch8TestSpec11NamePatternD2Ev
FNDA:207,_ZN5Catch5Timer5startEv
FNDA:0,_ZN5Catch5clara6detaillsERSoRKNS1_6ParserE
FNDA:0,_ZN5Catch22RegistrarForTagAliasesC2EPKcS2_RKNS_14SourceLineInfoE
FNDA:0,_ZN5Catch17ITagAliasRegistryD0Ev
FNDA:0,_ZN5Catch10RunContext17pushScopedMessageERKNS_11MessageInfoE
FNDA:0,_ZN5Catch8listTagsERKNS_6ConfigE
FNDA:0,_ZN5Catch8Matchers8Floating17WithinUlpsMatcherD0Ev
FNDA:0,_ZN5Catch6detail12_GLOBAL__N_113StreamBufImplINS1_17OutputDebugWriterELm256EED0Ev
FNDA:0,_ZNK5Catch5clara6detail13ParserRefImplINS1_3ArgEE10isOptionalEv
FNDA:0,_ZNK5Catch9StringRef6substrEmm
FNDA:7,_ZN5Catch7ExprLhsIbEC2Eb
FNDA:0,_ZN5Catch15WildcardPatternC2ERKNSt7__cxx1112basic_stringIcSt11char_traitsIcESaIcEEENS_13CaseSensitive6ChoiceE
FNDA:2,_ZN5Catch12_GLOBAL__N_112makeReporterERKSt10shared_ptrINS_6ConfigEE
FNDA:33,_ZN5Catch10BinaryExprIRKSt6vectorIiSaIiEES5_ED2Ev
FNDA:0,_ZN5Catch5clara6detail11BasicResultINS1_15ParseResultTypeEE12runtimeErrorERKNSt7__cxx1112basic_stringIcSt11char_traitsIcESaIcEEE
FNDA:0,_ZN5Catch17ReporterRegistrarINS_11XmlReporterEE15ReporterFactoryD0Ev
FNDA:0,_ZN5Catch22CumulativeReporterBaseINS_13JunitReporterEE4NodeINS_12TestRunStatsENS3_INS_14TestGroupStatsENS3_INS_13TestCaseStatsENS2_11SectionNodeEEEEEEC2ERKS4_
FNDA:96,_ZN5Catch12_GLOBAL__N_117getTheRegistryHubEv
FNDA:0,_ZN5Catch18IStreamingReporter14benchmarkEndedERKNS_14BenchmarkStatsE
FNDA:304,_ZN5Catch16TestCaseTracking14TrackerContext17setCurrentTrackerEPNS0_8ITrackerE
FNDA:2,_ZN5Catch6OptionINS_11TestRunInfoEED2Ev
FNDA:2,_ZN5Catch6OptionINS_11TestRunInfoEEC2Ev
FNDA:0,_ZN5Catch8Matchers9StdString13EqualsMatcherD0Ev
FNDA:0,_ZN5Catch19IMutableRegistryHubD0Ev
FNDA:0,_ZN5Catch10BinaryExprIRKibED0Ev
FNDA:0,_ZN5Catch10RunContext19lastAssertionPassedEv
FNDA:0,_ZNK5Catch5clara6detail11BasicResultIvEcvbEv
FNDA:226,_ZNK5Catch9StringRefcvNSt7__cxx1112basic_stringIcSt11char_traitsIcESaIcEEEEv
FNDA:0,_ZN5Catch21TestEventListenerBase17assertionStartingERKNS_13AssertionInfoE
FNDA:0,_ZNK5Catch12TestCaseInfo12tagsAsStringB5cxx11Ev
FNDA:33,_ZN5Catch7ExprLhsIRKSt6vectorIiSaIiEEEeqIS3_EEKNS_10BinaryExprIS5_RKT_EESB_
FNDA:0,_ZNK5Catch5clara6detail11BasicResultINS1_10ParseStateEE4typeEv
FNDA:0,_ZN5Catch12_GLOBAL__N_113trailingBytesEh
FNDA:0,_ZNK5Catch6Config27benchmarkResolutionMultipleEv
FNDA:0,_ZN5Catch21StreamingReporterBaseINS_15ConsoleReporterEE8skipTestERKNS_12TestCaseInfoE
FNDA:0,_ZNK5Catch5clara6detail10ParserBase8validateEv
FNDA:2,_ZN5Catch8IContextD2Ev
FNDA:0,_ZN5Catch21StreamingReporterBaseINS_11XmlReporterEE15testRunStartingERKNS_11TestRunInfoE
FNDA:0,_ZN5Catch8containsERKNSt7__cxx1112basic_stringIcSt11char_traitsIcESaIcEEES7_
FNDA:0,_ZN5Catch10RunContext25handleFatalErrorConditionENS_9StringRefE
FNDA:0,_ZN5Catch13TestCaseStatsD0Ev
FNDA:2,_ZN5Catch5clara6detail6ParseroRERKNS1_3ArgE
FNDA:0,_ZN5Catch11XmlReporter16testCaseStartingERKNS_12TestCaseInfoE
FNDA:0,_ZN5Catch12SectionStatsaSERKS0_
FNDA:6,_ZN5Catch11TestRunInfoD2Ev
FNDA:38,_ZN5Catch7ExprLhsIRKiEC2ES2_
FNDA:0,_ZN5Catch5clara6detail11BoundLambdaIZNS_21makeCommandLineParserERNS_10ConfigDataEEUlRKNSt7__cxx1112basic_stringIcSt11char_traitsIcESaIcEEEE2_E8setValueESC_
FNDA:0,_ZN5Catch6Detail17rawMemoryToStringIP11SimpleActorEENSt7__cxx1112basic_stringIcSt11char_traitsIcESaIcEEERKT_
FNDA:2,_ZN5Catch5clara6detail13ParserRefImplINS1_3OptEEC2IZNS_21makeCommandLineParserERNS_10ConfigDataEEUlRKNSt7__cxx1112basic_stringIcSt11char_traitsIcESaIcEEEE5_EERKT_SF_
FNDA:189,_ZN5Catch16TestCaseTracking11TrackerBaseC2ERKNS0_15NameAndLocationERNS0_14TrackerContextEPNS0_8ITrackerE
FNDA:0,_ZN5Catch16isDebuggerActiveEv
FNDA:74,_ZN5Catch13TestCaseStatsC2ERKNS_12TestCaseInfoERKNS_6TotalsERKNSt7__cxx1112basic_stringIcSt11char_traitsIcESaIcEEESE_b
FNDA:0,_ZN5Catch5clara6detail15ResultValueBaseINS1_10ParseStateEED0Ev
FNDA:2,_ZN5Catch8LazyStatINS_9GroupInfoEED2Ev
FNDA:2,_ZN5Catch14TestSpecParser10addPatternINS_8TestSpec10TagPatternEEEvv
FNDA:0,_ZN5Catch21StreamingReporterBaseINS_15CompactReporterEE8skipTestERKNS_12TestCaseInfoE
FNDA:4,_ZN5Catch5clara6detail10ParseStateC2ERKS2_
FNDA:2,_ZN5Catch7ContextC2Ev
FNDA:90,_ZN5Catch13AssertionInfoaSEOS0_
FNDA:4,_ZN5Catch5clara6detail3ArgC2ERKS2_
FNDA:2,_ZN5Catch5clara6detail3ArgCI2NS1_13ParserRefImplIS2_EEISt6vectorINSt7__cxx1112basic_stringIcSt11char_traitsIcESaIcEEESaISC_EEEERT_RKSC_
FNDA:0,_ZN12_GLOBAL__N_19dimColourEv
FNDA:0,_ZN5Catch6ConfigD0Ev
FNDA:0,_ZN5Catch20ReusableStringStreamlsIA4_cEERS0_RKT_
FNDA:0,_ZN5Catch15BenchmarkLooper13getResolutionEv
FNDA:0,_ZN5Catch5clara6detail11BoundLambdaIZNS_21makeCommandLineParserERNS_10ConfigDataEEUlRKNSt7__cxx1112basic_stringIcSt11char_traitsIcESaIcEEEE3_ED0Ev
FNDA:0,_ZN5Catch8Matchers8Floating16WithinAbsMatcherC2Edd
FNDA:0,_ZNK5Catch10BinaryExprIRKP11SimpleActorRKDnE29streamReconstructedExpressionERSo
FNDA:0,_ZNK5Catch5clara6detail6Parser14getHelpColumnsEv
FNDA:2,_ZN5Catch14TestSpecParserD2Ev
FNDA:74,_ZNK5Catch12TestCaseInfo14expectedToFailEv
FNDA:6,_ZN5Catch9UnaryExprIbED2Ev
FNDA:0,_ZN5Catch15WildcardPatternD2Ev
FNDA:0,_ZN5Catch25prepareExpandedExpressionERNS_15AssertionResultE
FNDA:2,_ZN5Catch5clara6detail11BoundLambdaIZNS_21makeCommandLineParserERNS_10ConfigDataEEUlRKNSt7__cxx1112basic_stringIcSt11char_traitsIcESaIcEEEE3_EC2ERKSD_
FNDA:0,_ZNK5Catch8Matchers9StdString13EqualsMatcher5matchERKNSt7__cxx1112basic_stringIcSt11char_traitsIcESaIcEEE
FNDA:117,_ZN5Catch10RunContext14sectionStartedERKNS_11SectionInfoERNS_6CountsE
FNDA:4,_ZNK5Catch15AssertionResult10getMessageB5cxx11Ev
FNDA:199,_ZN5Catch11NonCopyableC2Ev
FNDA:0,_ZN5Catch14BenchmarkStatsD2Ev
FNDA:0,_ZN5Catch7IStreamD0Ev
FNDA:0,_ZN5Catch13JunitReporter16testCaseStartingERKNS_12TestCaseInfoE
FNDA:0,_ZNK5Catch22CumulativeReporterBaseINS_13JunitReporterEE14getPreferencesEv
FNDA:2,_ZN5Catch12_GLOBAL__N_115PosixColourImpl8instanceEv
FNDA:0,_ZN5Catch11XmlReporterC2ERKNS_14ReporterConfigE
FNDA:0,_ZN5Catch13JunitReporter14assertionEndedERKNS_14AssertionStatsE
FNDA:2,_ZN5Catch5clara6detail13ParserRefImplINS1_3ArgEEclERKNSt7__cxx1112basic_stringIcSt11char_traitsIcESaIcEEE
FNDA:0,_ZN5Catch16TestCaseTracking12IndexTrackerC2ERKNS0_15NameAndLocationERNS0_14TrackerContextEPNS0_8ITrackerEi
FNDA:0,_ZNK5Catch8Matchers8Floating17WithinUlpsMatcher5matchERKd
FNDA:135,_ZN5Catch16AssertionHandler10handleExprERKNS_20ITransientExpressionE
FNDA:6,_ZN5Catch11StringMakerI9directionvE7convertIS1_EENSt9enable_ifIXsrNS_6Detail18IsStreamInsertableIT_EE5valueENSt7__cxx1112basic_stringIcSt11char_traitsIcESaIcEEEE4typeERKS7_
FNDA:50,_ZNK5Catch5clara6detail6ParserorINS1_3OptEEES2_RKT_
FNDA:414,_ZN5Catch16TestCaseTracking15NameAndLocationC2EOS1_
FNDA:2,_ZN5Catch12IRegistryHubC2Ev
FNDA:0,_ZN5Catch5clara6detail5TokenD2Ev
FNDA:8,_ZN5Catch6OptionINS_9GroupInfoEE5resetEv
FNDA:575,_ZN5Catch9StringRefC2ERKS0_
FNDA:0,_ZN5Catch9XmlWriter13ScopedElement14writeAttributeIdEERS1_RKNSt7__cxx1112basic_stringIcSt11char_traitsIcESaIcEEERKT_
FNDA:473,_ZN5Catch9StringRefC2EPKc
FNDA:98,_ZN5Catch6Colour3useENS0_4CodeE
FNDA:0,_ZNK5Catch17ReporterRegistrarINS_15CompactReporterEE15ReporterFactory6createERKNS_14ReporterConfigE
FNDA:0,_ZN5Catch8Matchers9StdString15EndsWithMatcherC2ERKNS1_11CasedStringE
FNDA:3,_ZN5Catch7ExprLhsIRKmEgtIiEEKNS_10BinaryExprIS2_RKT_EES8_
FNDA:2,_ZNK5Catch5clara6detail6ParserorINS1_7ExeNameEEES2_RKT_
FNDA:0,_ZN5Catch14IResultCaptureD0Ev
FNDA:2450,_ZN5Catch5clara6detail10ParserBaseD2Ev
FNDA:7,_ZNK5Catch5clara8TextFlow6Column8iterator10isBoundaryEm
FNDA:2,_ZN5Catch17IReporterRegistryD2Ev
FNDA:2,_ZNK5Catch6Config15getReporterNameB5cxx11Ev
FNDA:0,_ZN5Catch14ReporterConfigC2ERKSt10shared_ptrIKNS_7IConfigEERSo
FNDA:2,_ZN5Catch14libraryVersionEv
FNDA:0,_ZN5Catch8TestCaseaSEOS0_
FNDA:0,_ZN5Catch10BinaryExprIRK9directionS3_ED0Ev
FNDA:117,_ZN5Catch5TimerC2Ev
FNDA:0,_ZN5Catch24handleExceptionMatchExprERNS_16AssertionHandlerERKNS_8Matchers4Impl11MatcherBaseINSt7__cxx1112basic_stringIcSt11char_traitsIcESaIcEEEEENS_9StringRefE
FNDA:4,_ZN5Catch15ConsoleReporter18lazyPrintGroupInfoEv
FNDA:0,_ZN5Catch20ReusableStringStreamlsIjEERS0_RKT_
FNDA:2,_ZN5Catch10makeStreamERKNS_9StringRefE
FNDA:0,_ZN5Catch12_GLOBAL__N_111RegistryHub24registerStartupExceptionEv
FNDA:135,_ZN5Catch16AssertionHandler8completeEv
FNDA:2,_GLOBAL__sub_I_main.cpp
FNDA:0,_ZN5Catch21StreamingReporterBaseINS_11XmlReporterEE15sectionStartingERKNS_11SectionInfoE
FNDA:152,_ZN5Catch12SectionStatsC2ERKNS_11SectionInfoERKNS_6CountsEdb
FNDA:6,_ZN5Catch6OptionINS_15AssertionResultEE5resetEv
FNDA:4,_ZN5Catch14AssertionStatsC2ERKNS_15AssertionResultERKSt6vectorINS_11MessageInfoESaIS5_EERKNS_6TotalsE
FNDA:1,_ZN5Catch7ExprLhsIRKP5ActorEeqIP11SimpleActorEEKNS_10BinaryExprIS4_RKT_EESC_
FNDA:4,_ZN5Catch8TestSpec7PatternD2Ev
FNDA:4,_ZNK5Catch14SourceLineInfo5emptyEv
FNDA:2,_ZN5Catch20ReusableStringStreamlsIA25_cEERS0_RKT_
FNDA:0,_ZN5Catch22CumulativeReporterBaseINS_13JunitReporterEE4NodeINS_13TestCaseStatsENS2_11SectionNodeEED2Ev
FNDA:0,_ZN5Catch5clara6detail3ArgD0Ev
FNDA:208,_ZN5Catch12TestCaseInfoC2EOS0_
FNDA:176,_ZN5Catch21FatalConditionHandler5resetEv
FNDA:355,_ZN5Catch31getCurrentNanosecondsSinceEpochEv
FNDA:0,_ZN5Catch6detail12_GLOBAL__N_113StreamBufImplINS1_17OutputDebugWriterELm256EED2Ev
FNDA:189,_ZN5Catch16TestCaseTracking11TrackerBaseD2Ev
FNDA:1,_ZN5Catch10BinaryExprIRKP5ActorRKP11SimpleActorED2Ev
FNDA:0,_ZNK5Catch5clara6detail13ParserRefImplINS1_3OptEE11cardinalityEv
FNDA:2,_ZNK5Catch12_GLOBAL__N_111RegistryHub27getStartupExceptionRegistryEv
FNDA:2,_ZN5Catch12LeakDetectorC2Ev
FNDA:0,_ZNK5Catch15AssertionResult9succeededEv
FNDA:4,_ZN5Catch11TestRunInfoC2ERKS0_
FNDA:0,_ZN5Catch22CumulativeReporterBaseINS_13JunitReporterEE13testCaseEndedERKNS_13TestCaseStatsE
FNDA:0,_ZN5Catch12TestCaseInfoaSEOS0_
FNDA:2,_ZN5Catch5clara6detail3OptC2IZNS_21makeCommandLineParserERNS_10ConfigDataEEUlbE6_EERKT_
FNDA:2,_ZNK5Catch16TagAliasRegistry13expandAliasesERKNSt7__cxx1112basic_stringIcSt11char_traitsIcESaIcEEE
FNDA:0,_ZNK5Catch5clara8TextFlow7Columns3endEv
FNDA:0,_ZN5Catch16RedirectedStdOutD2Ev
FNDA:1035,_ZN5Catch16TestCaseTracking11TrackerBase14TrackerHasNameD2Ev
FNDA:2,_ZN5Catch15ConsoleReporterD0Ev
FNDA:2,_ZN5Catch5clara6detail11BoundLambdaIZNS_21makeCommandLineParserERNS_10ConfigDataEEUlbE8_EC2ERKS5_
FNDA:2,_ZN5Catch12TablePrinterC2ERSoSt6vectorINS_12_GLOBAL__N_110ColumnInfoESaIS4_EE
FNDA:0,_ZN5Catch10RunContext22exceptionEarlyReportedEv
FNDA:24,_ZN5Catch15compareNotEqualIP11SimpleActorRKDnEEbRKT_OT0_
FNDA:0,_ZN5Catch22CumulativeReporterBaseINS_13JunitReporterEE17assertionStartingERKNS_13AssertionInfoE
FNDA:0,_ZNK5Catch6Config11getFilenameB5cxx11Ev
FNDA:2,_ZN5Catch13StringStreamsD2Ev
FNDA:377,_ZN5Catch9StringRefC2Ev
FNDA:0,_ZNK5Catch8Matchers8Floating17WithinUlpsMatcher8describeB5cxx11Ev
FNDA:0,_ZN5Catch6Detail6Approx6customEv
FNDA:0,_ZN5Catch13JunitReporter22testRunEndedCumulativeEv
FNDA:214,_ZN5Catch16TestCaseTracking11TrackerBase9openChildEv
FNDA:0,_ZN5Catch5clara8TextFlow7ColumnspLERKNS1_6ColumnE
FNDA:0,_ZN5Catch5clara6detail15ResultValueBaseIvECI2NS1_10ResultBaseEENS4_4TypeE
FNDA:0,_ZN5Catch10ConfigDataaSERKS0_
FNDA:54,_ZN5Catch13SummaryColumnD2Ev
FNDA:4,_ZNK5Catch6Config16shouldDebugBreakEv
FNDA:0,_ZN5Catch5clara6detail17BoundValueRefBaseD0Ev
FNDA:0,_ZN5Catch15ConsoleReporter19noMatchingTestCasesERKNSt7__cxx1112basic_stringIcSt11char_traitsIcESaIcEEE
FNDA:4,_ZN5Catch8TestSpecC2ERKS0_
FNDA:74,_ZN5Catch6OptionINS_12TestCaseInfoEEaSERKS1_
FNDA:3,_ZN5Catch7ExprLhsIRK9ActorInfoEC2ES3_
FNDA:0,_ZN5Catch8Matchers4Impl18MatcherUntypedBaseC2Ev
FNDA:0,_ZN5Catch15ConsoleReporter14benchmarkEndedERKNS_14BenchmarkStatsE
FNDA:0,_ZN5Catch17ListeningReporterD2Ev
FNDA:0,_ZN5Catch8TestSpec11NamePatternD0Ev
FNDA:1508,_ZN5Catch5clara6detail13ParserRefImplINS1_3OptEEC2ERKS4_
FNDA:0,_ZN5Catch7AutoRegD0Ev
FNDA:2,_ZN5Catch20ReusableStringStreamlsIA20_cEERS0_RKT_
FNDA:2,_ZN5Catch15IMutableContextD2Ev
FNDA:0,_ZN5Catch15CompactReporterCI2NS_21StreamingReporterBaseIS0_EEERKNS_14ReporterConfigE
FNDA:74,_ZN5Catch21StreamingReporterBaseINS_15ConsoleReporterEE13testCaseEndedERKNS_13TestCaseStatsE
FNDA:172,_ZNK5Catch6Config10abortAfterEv
FNDA:0,_ZN5Catch5clara6detail11BasicResultINS1_10ParseStateEEC2INS1_15ParseResultTypeEEERKNS2_IT_EE
FNDA:0,_ZNK5Catch5clara6detail10ParserBase11cardinalityEv
FNDA:74,_ZN5Catch9matchTestERKNS_8TestCaseERKNS_8TestSpecERKNS_7IConfigE
FNDA:0,_ZNK5Catch6Config14getProcessNameB5cxx11Ev
FNDA:74,_ZNK5Catch8TestSpec15ExcludedPattern7matchesERKNS_12TestCaseInfoE
FNDA:6,_ZN5Catch9UnaryExprIbEC2Eb
FNDA:225,_ZN5Catchli3_srEPKcm
FNDA:0,_ZN5Catch13JunitReporter14getDescriptionB5cxx11Ev
FNDA:0,_ZN5Catch11XmlReporterD2Ev
FNDA:2,_ZN5Catch15ConsoleReporter14testGroupEndedERKNS_14TestGroupStatsE
FNDA:0,_ZN5Catch9XmlWriter16writeDeclarationEv
FNDA:0,_ZN5Catch15CompactReporter14assertionEndedERKNS_14AssertionStatsE
FNDA:22,_ZN5CatchlsERSoRKNS_6ColourE
FNDA:4,_ZN5Catch7Session6configEv
FNDA:2,_ZN5Catch10RunContextD2Ev
FNDA:74,_ZN5Catch11NameAndTagsD2Ev
FNDA:0,_ZN5Catch21FatalConditionHandler12handleSignalEi
FNDA:0,_ZN5Catch10RunContext34handleUnexpectedExceptionNotThrownERKNS_13AssertionInfoERNS_17AssertionReactionE
FNDA:74,_ZN5Catch6TotalspLERKS0_
FNDA:0,_ZN5Catch21TestEventListenerBase14assertionEndedERKNS_14AssertionStatsE
FNDA:0,_ZZN5Catch21makeCommandLineParserERNS_10ConfigDataEENKUlRKNSt7__cxx1112basic_stringIcSt11char_traitsIcESaIcEEEE2_clES9_
FNDA:2,_ZN5Catch16TagAliasRegistryD2Ev
FNDA:0,_ZN5Catch6OptionImEdeEv
FNDA:0,_ZN5Catch6Detail9stringifyIyEENSt7__cxx1112basic_stringIcSt11char_traitsIcESaIcEEERKT_
FNDA:0,_ZN5Catch17ListeningReporterD0Ev
FNDA:0,_ZN5Catch7SessionD0Ev
FNDA:0,_ZN5CatchlsERSoRKNS_9pluraliseE
FNDA:4,_ZNK5Catch14ReporterConfig6streamEv
FNDA:23,_ZNK5Catch5clara8TextFlow6Column8iteratorneERKS3_
FNDA:6,_ZN5Catch5clara6detail7ExeNameC2Ev
FNDA:145,_ZNK5Catch20ReusableStringStream3strB5cxx11Ev
FNDA:0,_ZN5Catch16TestCaseTracking12IndexTracker8moveNextEv
FNDA:0,_ZN5Catch11SectionInfoaSERKS0_
FNDA:0,_ZN5Catch14TestGroupStatsC2ERKNS_9GroupInfoE
FNDA:6,_ZN5Catch5clara6detail3ArgD2Ev
FNDA:12,_ZN5Catch20ReusableStringStreamlsIA31_cEERS0_RKT_
FNDA:0,_ZN5Catch20ReusableStringStreamlsINSt7__cxx1112basic_stringIcSt11char_traitsIcESaIcEEEEERS0_RKT_
FNDA:20,_ZN5Catch10BinaryExprIRK9directionS3_EC2EbS3_NS_9StringRefES3_
FNDA:0,_ZN5Catch15CompactReporter14getDescriptionB5cxx11Ev
FNDA:0,_ZNK5Catch5clara6detail7ExeName5parseERKNSt7__cxx1112basic_stringIcSt11char_traitsIcESaIcEEERKNS1_11TokenStreamE
FNDA:0,_ZN5CatchlsINSt7__cxx1112basic_stringIcSt11char_traitsIcESaIcEEEEERNS_12TablePrinterES8_RKT_
FNDA:0,_ZN5Catch10BinaryExprIRKP11SimpleActorRKDnED0Ev
FNDA:0,_ZN5Catch8Matchers9StdString17StartsWithMatcherD2Ev
FNDA:0,_ZN5Catch22CumulativeReporterBaseINS_13JunitReporterEE13BySectionInfoC2ERKS3_
FNDA:4,_ZN5CatchlsERSoRKNS_14LazyExpressionE
FNDA:0,_ZN5Catch13ScopedMessageD2Ev
FNDA:74,_ZN5Catch21TestInvokerAsFunctionC2EPFvvE
FNDA:0,_ZN5Catch5clara6detail13LambdaInvokerINS1_11BasicResultINS1_15ParseResultTypeEEEE6invokeIZNS_21makeCommandLineParserERNS_10ConfigDataEEUlRKNSt7__cxx1112basic_stringIcSt11char_traitsIcESaIcEEEE_SF_EES5_RKT_RKT0_
FNDA:6,_ZN5Catch12compareEqualImiEEbRKT_RKT0_
FNDA:0,_ZN5Catch6Detail6ApproxC2IevEERKT_
FNDA:74,_ZN5Catch16extractClassNameB5cxx11ERKNS_9StringRefE
FNDA:0,_ZNK5Catch8TestCaseeqERKS0_
FNDA:4,_ZN5Catch20ReusableStringStreamlsINS_14LazyExpressionEEERS0_RKT_
FNDA:172,_ZNK5Catch6Counts5totalEv
FNDA:0,_ZN5Catch11StringMakerIcvE7convertB5cxx11Ec
FNDA:0,_ZN5Catch5clara6detail15ResultValueBaseINS1_15ParseResultTypeEED0Ev
FNDA:0,_ZN5Catch12_GLOBAL__N_112NoColourImpl8instanceEv
FNDA:0,_ZN5Catch22CumulativeReporterBaseINS_13JunitReporterEE4NodeINS_12TestRunStatsENS3_INS_14TestGroupStatsENS3_INS_13TestCaseStatsENS2_11SectionNodeEEEEEED2Ev
FNDA:0,_ZN5Catch8Matchers8Floating17WithinUlpsMatcherC2EdiNS1_17FloatingPointKindE
FNDA:0,_ZN5Catch16TestCaseTracking11TrackerBaseD0Ev
FNDA:0,_ZN5Catch9MatchExprINSt7__cxx1112basic_stringIcSt11char_traitsIcESaIcEEERKNS_8Matchers4Impl11MatcherBaseIS6_EEED2Ev
FNDA:0,_ZNK5Catch9XmlEncode8encodeToERSo
FNDA:6,_ZNK5Catch6Config24includeSuccessfulResultsEv
FNDA:2,_ZN5Catch8LazyStatINS_11TestRunInfoEEC2Ev
FNDA:0,_ZN5Catch27ExceptionTranslatorRegistryD0Ev
FNDA:49,_ZN5Catch6ColourD2Ev
FNDA:0,_ZN5Catch5clara8TextFlow7Columns8iteratorD2Ev
FNDA:0,_ZNK5Catch8Matchers9StdString15ContainsMatcher5matchERKNSt7__cxx1112basic_stringIcSt11char_traitsIcESaIcEEE
FNDA:0,_ZN5Catch21StreamingReporterBaseINS_11XmlReporterEE16testCaseStartingERKNS_12TestCaseInfoE
FNDA:0,_ZN5Catch6Detail12_GLOBAL__N_110Endianness5whichEv
FNDA:115,_ZN5Catch16TestCaseTracking14SectionTracker14addNextFiltersERKSt6vectorINSt7__cxx1112basic_stringIcSt11char_traitsIcESaIcEEESaIS8_EE
FNDA:0,_ZN5Catch16TestCaseTracking12IndexTracker5closeEv
FNDA:0,_ZN5Catch5clara6detail11convertIntoIiEENS1_11BasicResultINS1_15ParseResultTypeEEERKNSt7__cxx1112basic_stringIcSt11char_traitsIcESaIcEEERT_
FNDA:0,_ZN5Catch8Matchers10StartsWithERKNSt7__cxx1112basic_stringIcSt11char_traitsIcESaIcEEENS_13CaseSensitive6ChoiceE
FNDA:0,_ZN5Catch20ReusableStringStreamlsIA3_cEERS0_RKT_
FNDA:0,_ZNK5Catch8Matchers8Floating16WithinAbsMatcher5matchERKd
FNDA:2,_ZNK5Catch6Config9useColourEv
FNDA:12,_ZN5Catch20ReusableStringStreamlsIA28_cEERS0_RKT_
FNDA:239,_ZN5Catch13AssertionInfoD2Ev
FNDA:2,_ZN5Catch5clara6detail3OptC2IZNS_21makeCommandLineParserERNS_10ConfigDataEEUlRKNSt7__cxx1112basic_stringIcSt11char_traitsIcESaIcEEEE1_EERKT_SD_
FNDA:134,_ZN5Catch8TestCaseC2EOS0_
FNDA:358,_ZN5Catch16TestCaseTracking14TrackerContext14currentTrackerEv
FNDA:0,_ZN5Catch6Detail6ApproxC2IivEERKT_
FNDA:74,_ZNK5Catch8TestSpec10TagPattern7matchesERKNS_12TestCaseInfoE
FNDA:0,_ZNK5Catch5clara6detail13ParserRefImplINS1_3ArgEE11cardinalityEv
FNDA:0,_ZN5Catch5clara6detail13BoundValueRefINSt7__cxx1112basic_stringIcSt11char_traitsIcESaIcEEEED0Ev
FNDA:0,_ZN5Catch5clara8TextFlow6ColumnplERKS2_
FNDA:4,_ZN5Catch9GroupInfoC2ERKNSt7__cxx1112basic_stringIcSt11char_traitsIcESaIcEEEmm
FNDA:0,_ZN5Catch20IExceptionTranslatorD0Ev
FNDA:4,_ZN5Catch29formatReconstructedExpressionERSoRKNSt7__cxx1112basic_stringIcSt11char_traitsIcESaIcEEENS_9StringRefES8_
FNDA:0,_ZN5Catch16TestCaseTracking11TrackerBase6parentEv
FNDA:0,_ZN5Catch13MessageStreamC2Ev
FNDA:6,_ZN5Catch5clara8TextFlow17isBreakableBeforeEc
FNDA:2,_ZN5Catch5clara6detail11BasicResultINS1_10ParseStateEE2okIS3_EES4_RKT_
FNDA:0,_ZN5Catch11StringMakerIPwvE7convertB5cxx11ES1_
FNDA:0,_ZN5Catch5clara6detail12invokeLambdaINSt7__cxx1112basic_stringIcSt11char_traitsIcESaIcEEEZNS_21makeCommandLineParserERNS_10ConfigDataEEUlRKS8_E3_EENS1_11BasicResultINS1_15ParseResultTypeEEERKT0_SC_
FNDA:0,_ZNK5Catch27ExceptionTranslatorRegistry14tryTranslatorsB5cxx11Ev
FNDA:4,_ZN5Catch15ConsoleReporter15printOpenHeaderERKNSt7__cxx1112basic_stringIcSt11char_traitsIcESaIcEEE
FNDA:2,_ZN5Catch5clara6detail13ParserRefImplINS1_3OptEEC2ISt6vectorINSt7__cxx1112basic_stringIcSt11char_traitsIcESaIcEEESaISC_EEEERT_RKSC_
FNDA:2,_ZN5Catch12_GLOBAL__N_19toLowerChEc
FNDA:402,_ZN5Catch14SourceLineInfoC2EPKcm
FNDA:16,_ZN5Catch13SummaryColumn6addRowEm
FNDA:0,_ZN5Catch5clara6detail15ResultValueBaseIvED2Ev
FNDA:2,_ZN5Catch5clara6detail13ParserRefImplINS1_3OptEEC2IiEERT_RKNSt7__cxx1112basic_stringIcSt11char_traitsIcESaIcEEE
FNDA:0,_ZNK5Catch16TestCaseTracking11TrackerBase16isSectionTrackerEv
FNDA:4,_ZN5Catch15ConsoleReporter29printTestCaseAndSectionHeaderEv
FNDA:0,_ZN5Catch21StreamingReporterBaseINS_21TestEventListenerBaseEEC2ERKNS_14ReporterConfigE
FNDA:2,_ZN5Catch14TestSpecParser5parseERKNSt7__cxx1112basic_stringIcSt11char_traitsIcESaIcEEE
FNDA:2,_ZN5Catch8IContextC2Ev
FNDA:4,_ZN5Catch10RunContext10reportExprERKNS_13AssertionInfoENS_9ResultWas6OfTypeEPKNS_20ITransientExpressionEb
FNDA:12,_ZN5Catch5clara8TextFlow6Column8iterator10calcLengthEv
FNDA:0,_ZNK5Catch5clara6detail7ExeName4nameB5cxx11Ev
FNDA:8,_ZN5Catch14getLineOfCharsILc45EEEPKcv
FNDA:0,_ZN5Catch5clara6detail11BoundLambdaIZNS_21makeCommandLineParserERNS_10ConfigDataEEUlRKNSt7__cxx1112basic_stringIcSt11char_traitsIcESaIcEEEE1_ED0Ev
FNDA:135,_ZN5Catch16AssertionHandler12setCompletedEv
FNDA:0,_ZN5Catch17ListeningReporter16testCaseStartingERKNS_12TestCaseInfoE
FNDA:0,_ZN5Catch5clara6detail3ArgC2EOS2_
FNDA:0,_ZN5Catch5clara6detail12invokeLambdaINSt7__cxx1112basic_stringIcSt11char_traitsIcESaIcEEEZNS_21makeCommandLineParserERNS_10ConfigDataEEUlRKS8_E1_EENS1_11BasicResultINS1_15ParseResultTypeEEERKT0_SC_
FNDA:0,_ZN5Catch21StreamingReporterBaseINS_21TestEventListenerBaseEE12testRunEndedERKNS_12TestRunStatsE
FNDA:0,_ZN5Catch9XmlWriter13ScopedElementC2EOS1_
FNDA:0,_ZNK5Catch5clara8TextFlow7Columns5beginEv
FNDA:0,_ZN5Catch6Detail17rawMemoryToStringIP5ActorEENSt7__cxx1112basic_stringIcSt11char_traitsIcESaIcEEERKT_
FNDA:0,_ZN5Catch9XmlWriter14writeAttributeIPKcEERS0_RKNSt7__cxx1112basic_stringIcSt11char_traitsIcESaIcEEERKT_
FNDA:52,_ZN5Catch5clara6detail6ParseroRERKNS1_3OptE
FNDA:0,_ZN5Catch18IStreamingReporter21fatalErrorEncounteredENS_9StringRefE
FNDA:2,_ZN5Catch5clara6detail11TokenStreamC2EN9__gnu_cxx17__normal_iteratorIPKNSt7__cxx1112basic_stringIcSt11char_traitsIcESaIcEEESt6vectorISA_SaISA_EEEESG_
FNDA:0,_ZN5Catch7rngSeedEv
FNDA:2,_ZN5Catch7ContextD2Ev
FNDA:6,_ZN5Catch5clara6detail10ParseStateD2Ev
FNDA:0,_ZZN5Catch21makeCommandLineParserERNS_10ConfigDataEENKUlRKNSt7__cxx1112basic_stringIcSt11char_traitsIcESaIcEEEE3_clES9_
FNDA:6,_ZN5Catch5clara6detail13ParserRefImplINS1_3ArgEED2Ev
FNDA:0,_ZN5Catch5clara6detail11TokenStreamppEv
FNDA:4,_ZN5Catch14LazyExpressionC2Eb
FNDA:12,_ZNK5Catch5clara8TextFlow6Column8iteratordeB5cxx11Ev
FNDA:117,_ZNK5Catch7SectioncvbEv
FNDA:0,_ZNK5Catch12TablePrinter11columnInfosEv
FNDA:0,_ZN5Catch20ReusableStringStreamlsISt8_SetfillIcEEERS0_RKT_
FNDA:0,_ZN5Catch8Matchers9StdString12RegexMatcherD0Ev
FNDA:0,_ZNK5Catch17ReporterRegistrarINS_13JunitReporterEE15ReporterFactory6createERKNS_14ReporterConfigE
FNDA:4,_ZN5Catch8TestSpec7PatternC2Ev
FNDA:0,_ZN5Catch21StreamingReporterBaseINS_15CompactReporterEE19noMatchingTestCasesERKNSt7__cxx1112basic_stringIcSt11char_traitsIcESaIcEEE
FNDA:0,_ZNK5Catch5clara6detail3Opt8validateEv
FNDA:0,_ZN5Catch17ListeningReporter8skipTestERKNS_12TestCaseInfoE
FNDA:0,_ZN12_GLOBAL__N_116marginComparisonEddd
FNDA:0,_ZN5Catch17ListeningReporter14benchmarkEndedERKNS_14BenchmarkStatsE
FNDA:0,_ZN5Catch11StringMakerIjvE7convertB5cxx11Ej
FNDA:12,_ZNK5Catch5clara8TextFlow6Column8iterator18addIndentAndSuffixERKNSt7__cxx1112basic_stringIcSt11char_traitsIcESaIcEEE
FNDA:24,_ZNK5Catch5clara8TextFlow6Column8iterator6indentEv
FNDA:9,_ZN5Catch10DecomposerleImEENS_7ExprLhsIRKT_EES5_
FNDA:24,_ZN5Catch10BinaryExprIRKP11SimpleActorRKDnEC2EbS4_NS_9StringRefES6_
FNDA:0,_ZN5Catch8Matchers6EqualsERKNSt7__cxx1112basic_stringIcSt11char_traitsIcESaIcEEENS_13CaseSensitive6ChoiceE
FNDA:0,_ZN5Catch12_GLOBAL__N_111printTotalsERSoRKNS_6TotalsE
FNDA:281,_ZN5Catch16TestCaseTracking15NameAndLocationC2ERKNSt7__cxx1112basic_stringIcSt11char_traitsIcESaIcEEERKNS_14SourceLineInfoE
FNDA:2,_ZNK5Catch16ReporterRegistry12getListenersEv
FNDA:0,_ZN5Catch5clara6detail6ParserD0Ev
FNDA:2,_ZN5Catch17ITagAliasRegistryC2Ev
FNDA:0,_ZN5Catch20ReusableStringStreamlsISt5_SetwEERS0_RKT_
FNDA:0,_ZN5Catch16AssertionHandler31handleExceptionThrownAsExpectedEv
FNDA:2,_ZN5Catch6OptionINS_11TestRunInfoEEaSERKS1_
FNDA:0,_ZN5Catch5clara6detail5TokenC2ERKS2_
FNDA:2,_ZNK5Catch6Config8testSpecEv
FNDA:0,_ZN5Catch21StreamingReporterBaseINS_21TestEventListenerBaseEE8skipTestERKNS_12TestCaseInfoE
FNDA:0,_ZNK5Catch9StringRef7isOwnedEv
FNDA:650,_ZN5Catch5clara6detail13ParserRefImplINS1_3OptEEC2EOS4_
FNDA:0,_ZN5Catch9XmlWriter13ScopedElementD2Ev
FNDA:0,_ZNK5Catch20ITransientExpression18isBinaryExpressionEv
FNDA:0,_ZN5Catch9XmlWriter13ScopedElement14writeAttributeImEERS1_RKNSt7__cxx1112basic_stringIcSt11char_traitsIcESaIcEEERKT_
FNDA:0,_ZN5Catch13BenchmarkInfoD2Ev
FNDA:0,_ZNK5Catch5clara6detail11TokenStreamdeEv
FNDA:0,_ZN5Catch5clara6detail11convertIntoIjEENS1_11BasicResultINS1_15ParseResultTypeEEERKNSt7__cxx1112basic_stringIcSt11char_traitsIcESaIcEEERT_
FNDA:0,_ZN5Catch15BenchmarkLooper11reportStartEv
FNDA:2,_ZN5Catch5clara6detail3OptC2IZNS_21makeCommandLineParserERNS_10ConfigDataEEUlRKNSt7__cxx1112basic_stringIcSt11char_traitsIcESaIcEEEE0_EERKT_SD_
FNDA:0,_ZN5Catch5clara8TextFlow6ColumnC2EOS2_
FNDA:652,_ZN5Catch12TestCaseInfoD2Ev
FNDA:0,_ZN5Catch22CumulativeReporterBaseINS_13JunitReporterEE15testRunStartingERKNS_11TestRunInfoE
FNDA:0,_ZN5Catch5clara6detail13ParserRefImplINS1_3OptEED0Ev
FNDA:207,_ZN5Catch16TestCaseTracking11TrackerBase14TrackerHasNameC2ERKNS0_15NameAndLocationE
FNDA:0,_ZNK5Catch8TestSpec11NamePattern7matchesERKNS_12TestCaseInfoE
FNDA:135,_ZN5Catch15ConsoleReporter17assertionStartingERKNS_13AssertionInfoE
FNDA:0,_ZNK5Catch17ReporterRegistrarINS_15CompactReporterEE15ReporterFactory14getDescriptionB5cxx11Ev
FNDA:148,_ZNK5Catch5Timer22getElapsedMicrosecondsEv
FNDA:2,_ZN5Catch5clara6detail7ExeNameaSERKS2_
FNDA:24,_ZN5Catch5clara6detail16BoundFlagRefBaseC2Ev
FNDA:189,_ZN5Catch16TestCaseTracking14SectionTrackerD2Ev
FNDA:0,_ZN5Catch5clara6detail11BasicResultINS1_15ParseResultTypeEEC2ERKS4_
FNDA:0,_ZN5Catch12ratio_stringISt5ratioILl1ELl1000000000000000000EEE6symbolB5cxx11Ev
FNDA:0,_ZNK5Catch5clara6detail11BasicResultINS1_10ParseStateEE12errorMessageB5cxx11Ev
FNDA:2,_ZN5Catch5clara6detail3OptC2IZNS1_4HelpC4ERbEUlbE_EERKT_
FNDA:0,_ZN5Catch16RedirectedStreamC2ERSoS1_
FNDA:2,_ZN5Catch9StringRefC2ERKNSt7__cxx1112basic_stringIcSt11char_traitsIcESaIcEEE
FNDA:0,_ZN5Catch4cerrEv
FNDA:74,_ZN5Catch15ConsoleReporter13testCaseEndedERKNS_13TestCaseStatsE
FNDA:6,_ZN5Catch5clara6detail10ResultBaseD2Ev
FNDA:0,_ZN5Catch20ReusableStringStreamlsISt13_SetprecisionEERS0_RKT_
FNDA:0,_ZN5Catch8Matchers9StdString13EqualsMatcherD2Ev
FNDA:0,_ZN5Catch15CompactReporter19noMatchingTestCasesERKNSt7__cxx1112basic_stringIcSt11char_traitsIcESaIcEEE
FNDA:2,_ZNK5Catch17ReporterRegistrarINS_15ConsoleReporterEE15ReporterFactory6createERKNS_14ReporterConfigE
FNDA:0,_ZN5Catch8Matchers9StdString17StringMatcherBaseD0Ev
FNDA:118,_ZN5Catch5clara6detail20ComposableParserImplINS1_7ExeNameEED2Ev
FNDA:117,_ZN5Catch20ReusableStringStreamlsIA11_cEERS0_RKT_
FNDA:0,_ZN5Catch7TagInfoC2EOS0_
FNDA:0,_ZN5Catch15BenchmarkLooper19needsMoreIterationsEv
FNDA:2,_ZN5Catch10startsWithERKNSt7__cxx1112basic_stringIcSt11char_traitsIcESaIcEEES7_
FNDA:4,_ZNK5Catch12_GLOBAL__N_111RegistryHub19getReporterRegistryEv
FNDA:0,_ZN5Catch5clara6detail13ParserRefImplINS1_3ArgEED0Ev
FNDA:2,_ZN5Catch5clara6detail3OptC2IiEERT_RKNSt7__cxx1112basic_stringIcSt11char_traitsIcESaIcEEE
FNDA:0,_ZN5Catch16AssertionHandler13handleMessageENS_9ResultWas6OfTypeERKNS_9StringRefE
FNDA:0,_ZN5Catch18IStreamingReporter17benchmarkStartingERKNS_13BenchmarkInfoE
FNDA:2,_ZN5Catch5clara6detail15BoundFlagLambdaIZNS_21makeCommandLineParserERNS_10ConfigDataEEUlbE6_EC2ERKS5_
FNDA:0,_ZN5Catch12_GLOBAL__N_112NoColourImplD0Ev
FNDA:2,_ZN5Catch6Detail9stringifyIiEENSt7__cxx1112basic_stringIcSt11char_traitsIcESaIcEEERKT_
FNDA:0,_ZN5Catch5clara6detail10ResultBaseaSERKS2_
FNDA:2,_ZN5Catch5clara6detail11BasicResultINS1_15ParseResultTypeEED2Ev
FNDA:650,_ZN5Catch5clara6detail3OptC2EOS2_
FNDA:2,_ZN5Catch14IResultCaptureD2Ev
FNDA:2,_ZN5Catch5clara6detail11BoundLambdaIZNS_21makeCommandLineParserERNS_10ConfigDataEEUlRKNSt7__cxx1112basic_stringIcSt11char_traitsIcESaIcEEEE_ED2Ev
FNDA:0,_ZN5Catch8Matchers7Generic6Detail19finalizeDescriptionERKNSt7__cxx1112basic_stringIcSt11char_traitsIcESaIcEEE
FNDA:0,_ZNK5Catch5clara8TextFlow7Columns8iteratorneERKS3_
FNDA:2,_ZN5Catch6OptionINS_9GroupInfoEED2Ev
FNDA:20,_ZN5Catch5clara6detail12BoundFlagRefC2ERb
FNDA:4,_ZN5Catch14getLineOfCharsILc46EEEPKcv
FNDA:135,_ZN5Catch10RunContext10handleExprERKNS_13AssertionInfoERKNS_20ITransientExpressionERNS_17AssertionReactionE
FNDA:0,_ZN5Catch21StreamingReporterBaseINS_11XmlReporterEE12sectionEndedERKNS_12SectionStatsE
FNDA:0,_ZN5Catch14AssertionStatsC2ERKS0_
FNDA:24,_ZN5Catch5clara6detail13ParserRefImplINS1_3OptEEC2ERKSt10shared_ptrINS1_8BoundRefEE
FNDA:74,_ZN5Catch15makeTestInvokerEPFvvE
FNDA:0,_ZN5Catch6Detail6ApproxC2Ed
FNDA:0,_ZN5CatchlsERNS_12TablePrinterENS_12_GLOBAL__N_111ColumnBreakE
FNDA:0,_ZN5Catch5clara6detail11HelpColumnsC2ERKS2_
FNDA:0,_ZN5Catch8TagAliasD2Ev
FNDA:2,_ZNK5Catch6Config16warnAboutNoTestsEv
FNDA:4,_ZNK5Catch12_GLOBAL__N_123ConsoleAssertionPrinter23printOriginalExpressionEv
FNDA:0,_ZN5Catch11XmlReporter14assertionEndedERKNS_14AssertionStatsE
FNDA:2,_ZN5Catch7Session3runEiPPc
FNDA:4,_ZN5Catch13AssertionInfoaSERKS0_
FNDA:2,_ZNK5Catch6Config17listTestNamesOnlyEv
FNDA:4,_ZN5Catch10RunContext14assertionEndedERKNS_15AssertionResultE
FNDA:8,_ZN5Catch6OptionINS_9GroupInfoEEptEv
FNDA:2,_ZN5Catch6Config10openStreamEv
FNDA:0,_ZNK5Catch5clara6detail11BasicResultINS1_15ParseResultTypeEE4typeEv
FNDA:0,_ZN5Catch5clara6detail15BoundFlagLambdaIZNS_21makeCommandLineParserERNS_10ConfigDataEEUlbE6_E7setFlagEb
FNDA:0,_ZN5Catch8Matchers9StdString15EndsWithMatcherD0Ev
FNDA:0,_ZNK5Catch6Config14hasTestFiltersEv
FNDA:0,_ZN5Catch12_GLOBAL__N_116AssertionPrinter22printRemainingMessagesENS_6Colour4CodeE
FNDA:2,_ZN5Catch14TestGroupStatsC2ERKNS_9GroupInfoERKNS_6TotalsEb
FNDA:0,_ZN5Catch9listTestsERKNS_6ConfigE
FNDA:2,_ZN5Catch13StringStreamsC2Ev
FNDA:0,_ZN5Catch15CompactReporter12sectionEndedERKNS_12SectionStatsE
FNDA:2,_ZN5Catch17ReporterRegistrarINS_13JunitReporterEEC2ERKNSt7__cxx1112basic_stringIcSt11char_traitsIcESaIcEEE
FNDA:74,_ZNK5Catch8TestSpec6Filter7matchesERKNS_12TestCaseInfoE
FNDA:2,_ZN5Catch6OptionImEC2Ev
FNDA:0,_ZN5Catch22CumulativeReporterBaseINS_13JunitReporterEE12sectionEndedERKNS_12SectionStatsE
FNDA:2,_ZN5Catch20ReusableStringStream7cleanupEv
FNDA:0,_ZN5Catch11filterTestsERKSt6vectorINS_8TestCaseESaIS1_EERKNS_8TestSpecERKNS_7IConfigE
FNDA:0,_ZNK5Catch17ListeningReporter14getPreferencesEv
FNDA:0,_ZN5Catch10BinaryExprIRKP5ActorRKP11SimpleActorED0Ev
FNDA:0,_ZN5Catch6ColouraSEOS0_
FNDA:1505,_ZN5Catch16TestCaseTracking15NameAndLocationD2Ev
FNDA:10,_ZN5Catch8TestSpec6FilterD2Ev
FNDA:4,_ZNK5Catch15AssertionResult21hasExpandedExpressionEv
FNDA:0,_ZN5Catch13listReportersERKNS_6ConfigE
FNDA:0,_ZN5Catch8Matchers4Impl11MatcherBaseINSt7__cxx1112basic_stringIcSt11char_traitsIcESaIcEEEED2Ev
FNDA:2,_ZN5Catch10ErrnoGuardC2Ev
FNDA:0,_ZN5Catch21TestEventListenerBaseD0Ev
FNDA:0,_ZN5Catch21StreamingReporterBaseINS_15CompactReporterEED2Ev
FNDA:2,_ZN5Catch6OptionINS_15AssertionResultEEC2Ev
FNDA:16,_ZN5Catch20ReusableStringStreamlsImEERS0_RKT_
FNDA:0,_ZN5Catch5clara6detail8BoundRefD0Ev
FNDA:0,_ZN5Catch22CumulativeReporterBaseINS_13JunitReporterEE4NodeINS_14TestGroupStatsENS3_INS_13TestCaseStatsENS2_11SectionNodeEEEED2Ev
FNDA:0,_ZNK5Catch11MessageInfoltERKS0_
FNDA:0,_ZN5Catch5clara6detail13BoundValueRefISt6vectorINSt7__cxx1112basic_stringIcSt11char_traitsIcESaIcEEESaIS9_EEED0Ev
FNDA:74,_ZNK5Catch6Totals5deltaERKS0_
FNDA:2,_ZN5Catch12_GLOBAL__N_18runTestsERKSt10shared_ptrINS_6ConfigEE
FNDA:0,_ZNK5Catch16RedirectedStdOut3strB5cxx11Ev
FNDA:1,_ZN5Catch12_GLOBAL__N_17findMaxERmS1_S1_
FNDA:0,_ZNK5Catch11XmlReporter16getStylesheetRefB5cxx11Ev
FNDA:0,_ZN5Catch5clara6detail12invokeLambdaINSt7__cxx1112basic_stringIcSt11char_traitsIcESaIcEEEZNS_21makeCommandLineParserERNS_10ConfigDataEEUlRKS8_E0_EENS1_11BasicResultINS1_15ParseResultTypeEEERKT0_SC_
FNDA:0,_ZN5Catch20ReusableStringStreamlsIA47_cEERS0_RKT_
FNDA:0,_ZN5Catch11XmlReporter15testRunStartingERKNS_11TestRunInfoE
FNDA:4,_ZN5Catch8TestSpec6FilterC2Ev
FNDA:0,_ZNK5Catch5clara6detail13BoundValueRefISt6vectorINSt7__cxx1112basic_stringIcSt11char_traitsIcESaIcEEESaIS9_EEE11isContainerEv
FNDA:0,_ZN5Catch20ReusableStringStreamlsINS_9StringRefEEERS0_RKT_
FNDA:318,_ZN5Catch24getCurrentMutableContextEv
FNDA:4,_ZNK5Catch12_GLOBAL__N_123ConsoleAssertionPrinter15printResultTypeEv
FNDA:152,_ZN5Catch21StreamingReporterBaseINS_15ConsoleReporterEE12sectionEndedERKNS_12SectionStatsE
FNDA:0,_ZN5Catch21StreamingReporterBaseINS_21TestEventListenerBaseEE23getSupportedVerbositiesEv
FNDA:12,_ZNK5Catch9StringRef11currentDataEv
FNDA:74,_ZN5Catch16TestCaseTracking14SectionTracker17addInitialFiltersERKSt6vectorINSt7__cxx1112basic_stringIcSt11char_traitsIcESaIcEEESaIS8_EE
FNDA:0,_ZN5Catch20ReusableStringStreamlsINS_16TestCaseTracking11TrackerBase10CycleStateEEERS0_RKT_
FNDA:2,_ZN5Catch5clara6detail3OptC2IZNS_21makeCommandLineParserERNS_10ConfigDataEEUlRKNSt7__cxx1112basic_stringIcSt11char_traitsIcESaIcEEEE2_EERKT_SD_
FNDA:0,_ZZN5Catch21makeCommandLineParserERNS_10ConfigDataEENKUlRKNSt7__cxx1112basic_stringIcSt11char_traitsIcESaIcEEEE0_clES9_
FNDA:6,_ZN5Catch5clara6detail20ComposableParserImplINS1_7ExeNameEEC2Ev
FNDA:2,_ZN5Catch15ConsoleReporterD2Ev
FNDA:0,_ZN5Catch11NonCopyableD0Ev
FNDA:2,_ZN5Catch12TestRegistryD2Ev
FNDA:0,_ZN5Catch15CompactReporterD2Ev
FNDA:2,_ZN5Catch20ReusableStringStreamlsIxEERS0_RKT_
FNDA:0,_ZN5Catch17ListeningReporter14testGroupEndedERKNS_14TestGroupStatsE
FNDA:0,_ZN5Catch6Detail9stringifyINSt7__cxx1112basic_stringIcSt11char_traitsIcESaIcEEEEES7_RKT_
FNDA:118,_ZN5Catch5clara6detail7ExeNameD2Ev
FNDA:2,_ZN5Catch7IConfigC2Ev
FNDA:9,_ZN5Catch10BinaryExprIRKmRKiEC2EbS2_NS_9StringRefES4_
FNDA:2,_ZNK5Catch6Config13listReportersEv
FNDA:172,_ZNK5Catch10RunContext8abortingEv
FNDA:0,_ZN5Catch14TestGroupStatsD0Ev
FNDA:0,_ZN5Catch3rngEv
FNDA:2,_ZN5Catch5clara6detail20ComposableParserImplINS1_7ExeNameEEaSERKS4_
FNDA:2,_ZN5Catch5clara6detail10ResultBaseC2ERKS2_
FNDA:2,_ZN5Catch5clara6detail3OptC2IZNS_21makeCommandLineParserERNS_10ConfigDataEEUlRKNSt7__cxx1112basic_stringIcSt11char_traitsIcESaIcEEEE_EERKT_SD_
FNDA:0,_ZN5Catch21StreamingReporterBaseINS_15ConsoleReporterEE19noMatchingTestCasesERKNSt7__cxx1112basic_stringIcSt11char_traitsIcESaIcEEE
FNDA:0,_ZN5Catch5clara6detail15ResultValueBaseINS1_15ParseResultTypeEEC2ERKS4_
FNDA:0,_ZN5Catch28IExceptionTranslatorRegistryD0Ev
FNDA:0,_ZN5Catch21StreamingReporterBaseINS_11XmlReporterEE17testGroupStartingERKNS_9GroupInfoE
FNDA:152,_ZN5Catch15ConsoleReporter15sectionStartingERKNS_11SectionInfoE
FNDA:0,_ZN5Catch11XmlReporter19noMatchingTestCasesERKNSt7__cxx1112basic_stringIcSt11char_traitsIcESaIcEEE
FNDA:0,_ZN5Catch5clara8TextFlow6ColumnC2ERKS2_
FNDA:0,_ZN5Catch9XmlWriter14writeAttributeIA1_cEERS0_RKNSt7__cxx1112basic_stringIcSt11char_traitsIcESaIcEEERKT_
FNDA:2,_ZN5Catch6Detail9stringifyIxEENSt7__cxx1112basic_stringIcSt11char_traitsIcESaIcEEERKT_
FNDA:2210,_ZN5Catch5clara6detail13ParserRefImplINS1_3OptEED2Ev
FNDA:2,_ZN5Catch12TestRegistryC2Ev
FNDA:0,_ZN5Catch12_GLOBAL__N_1lsERSoRKNS0_8DurationE
FNDA:12,_ZN5Catch19AssertionResultDataC2ERKS0_
FNDA:0,_ZN5Catch12SectionStatsD0Ev
FNDA:2,_ZN5Catch8LazyStatINS_9GroupInfoEEC2Ev
FNDA:0,_ZN5Catch21StreamingReporterBaseINS_15CompactReporterEE12testRunEndedERKNS_12TestRunStatsE
FNDA:0,_ZN12_GLOBAL__N_19ConverterIfEC2Ef
FNDA:2,_ZN5Catch16TagAliasRegistryC2Ev
FNDA:2,_ZN5Catch14ReporterConfigC2ERKSt10shared_ptrIKNS_7IConfigEE
FNDA:2,_ZN5Catch7Session3runEv
FNDA:0,_ZNK5Catch10RunContext13getLastResultEv
FNDA:32,_ZN5Catch13SummaryColumnC2ERKS0_
FNDA:2,_ZN5Catch15ConsoleReporterC2ERKNS_14ReporterConfigE
FNDA:2,_ZN5Catch5clara6detail11BoundLambdaIZNS_21makeCommandLineParserERNS_10ConfigDataEEUlRKNSt7__cxx1112basic_stringIcSt11char_traitsIcESaIcEEEE4_EC2ERKSD_
FNDA:0,_ZNK5Catch6OptionINS_15AssertionResultEEdeEv
FNDA:0,_ZN5Catch20ReusableStringStreamlsIA1_cEERS0_RKT_
FNDA:12,_ZN5Catch13AssertionInfoC2ERKS0_
FNDA:2,_ZN5Catch7Context9setConfigERKSt10shared_ptrIKNS_7IConfigEE
FNDA:0,_ZN5Catch8Matchers9StdString17StartsWithMatcherC2ERKNS1_11CasedStringE
FNDA:3,_ZN5Catch10BinaryExprIRK9ActorInfoS3_EC2EbS3_NS_9StringRefES3_
FNDA:0,_ZNK5Catch9StringRef11isSubstringEv
FNDA:2,_ZN5Catch5clara6detail20ComposableParserImplINS1_3ArgEEC2Ev
FNDA:4,_ZN5Catch5clara6detail13BoundValueRefISt6vectorINSt7__cxx1112basic_stringIcSt11char_traitsIcESaIcEEESaIS9_EEEC2ERSB_
FNDA:92,_ZNK5Catch21StreamingReporterBaseINS_15ConsoleReporterEE14getPreferencesEv
FNDA:2,_ZN5Catch5clara6detail13ParserRefImplINS1_3OptEEC2IZNS_21makeCommandLineParserERNS_10ConfigDataEEUliE7_EERKT_RKNSt7__cxx1112basic_stringIcSt11char_traitsIcESaIcEEE
FNDA:0,_ZN5Catch22CumulativeReporterBaseINS_13JunitReporterEE4NodeINS_13TestCaseStatsENS2_11SectionNodeEED0Ev
FNDA:0,_ZN5Catch8Matchers9StdString12RegexMatcherC2ENSt7__cxx1112basic_stringIcSt11char_traitsIcESaIcEEENS_13CaseSensitive6ChoiceE
FNDA:0,_ZNK5Catch12_GLOBAL__N_116AssertionPrinter28printReconstructedExpressionEv
FNDA:0,_ZN12_GLOBAL__N_19ConverterIdEC2Ed
FNDA:0,_ZN5Catch8TagAliasC2EOS0_
FNDA:0,_ZN5Catch5clara6detail13LambdaInvokerINS1_11BasicResultINS1_15ParseResultTypeEEEE6invokeIZNS_21makeCommandLineParserERNS_10ConfigDataEEUlRKNSt7__cxx1112basic_stringIcSt11char_traitsIcESaIcEEEE2_SF_EES5_RKT_RKT0_
FNDA:2,_ZN5Catch5clara6detail3OptC2IZNS_21makeCommandLineParserERNS_10ConfigDataEEUlRKNSt7__cxx1112basic_stringIcSt11char_traitsIcESaIcEEEE3_EERKT_SD_
FNDA:1652,_ZN5Catch9StringRefD2Ev
FNDA:0,_ZN5Catch21StreamingReporterBaseINS_15CompactReporterEE17testGroupStartingERKNS_9GroupInfoE
FNDA:0,_ZN5Catch20getFormattedDurationB5cxx11Ed
FNDA:0,_ZN5Catch5clara6detail10ResultBaseD0Ev
FNDA:8,_ZN5Catch5clara6detail13BoundValueRefINSt7__cxx1112basic_stringIcSt11char_traitsIcESaIcEEEEC2ERS8_
FNDA:0,_ZN5Catch16AssertionHandler34handleUnexpectedExceptionNotThrownEv
FNDA:0,_ZN5Catch5clara6detail20ComposableParserImplINS1_3ArgEEaSERKS4_
FNDA:0,_ZNK5Catch6Detail6Approx22equalityComparisonImplEd
FNDA:0,_ZN5Catch5clara6detail5TokenC2Ev
FNDA:0,_ZZN5Catch21makeCommandLineParserERNS_10ConfigDataEENKUlbE8_clEb
FNDA:1,_ZN5Catch7ExprLhsIRKP5ActorEC2ES4_
FNDA:0,_ZNK5Catch6Config14getTestsOrTagsB5cxx11Ev
FNDA:0,_ZN5Catch20IExceptionTranslatorD2Ev
FNDA:0,_ZN5Catch21TestEventListenerBaseC2ERKNS_14ReporterConfigE
FNDA:2210,_ZN5Catch5clara6detail3OptD2Ev
FNDA:2,_ZN5Catch21StreamingReporterBaseINS_15ConsoleReporterEE23getSupportedVerbositiesEv
FNDA:0,_ZZN5Catch21makeCommandLineParserERNS_10ConfigDataEENKUlbE6_clEb
FNDA:2,_ZN5Catch5clara6detail11BoundLambdaIZNS_21makeCommandLineParserERNS_10ConfigDataEEUlRKNSt7__cxx1112basic_stringIcSt11char_traitsIcESaIcEEEE2_EC2ERKSD_
FNDA:2,_ZN5Catch17ReporterRegistrarINS_11XmlReporterEE15ReporterFactoryC2Ev
FNDA:112,_ZN5Catch5clara6detail7ExeNameC2ERKS2_
FNDA:2,_ZN5Catch5clara6detail11BasicResultINS1_15ParseResultTypeEECI2NS1_15ResultValueBaseIS3_EEENS1_10ResultBase4TypeERKS3_
FNDA:12,_ZN5Catch15AssertionResultD2Ev
FNDA:170,_ZNK5Catch16TestCaseTracking11TrackerBase14TrackerHasNameclERKSt10shared_ptrINS0_8ITrackerEE
FNDA:0,_ZN5Catch12ratio_stringISt5ratioILl1ELl1000000EEE6symbolB5cxx11Ev
FNDA:0,_ZZN5Catch21makeCommandLineParserERNS_10ConfigDataEENKUliE7_clEi
FNDA:207,_ZNK5Catch16TestCaseTracking14TrackerContext14completedCycleEv
FNDA:0,_ZN5Catch22CumulativeReporterBaseINS_13JunitReporterEE11SectionNodeD0Ev
FNDA:8,_ZN5CatchlsERSoRKNS_14SourceLineInfoE
FNDA:2,_ZN5Catch5clara6detail7ExeNameC2ERNSt7__cxx1112basic_stringIcSt11char_traitsIcESaIcEEE
FNDA:0,_ZNK5Catch16TagAliasRegistry4findERKNSt7__cxx1112basic_stringIcSt11char_traitsIcESaIcEEE
FNDA:0,_ZN5Catch7TagInfo3addERKNSt7__cxx1112basic_stringIcSt11char_traitsIcESaIcEEE
FNDA:0,_ZN5Catch12_GLOBAL__N_116AssertionPrinterC2ERSoRKNS_14AssertionStatsEb
FNDA:8,_ZNK5Catch15AssertionResult21getExpandedExpressionB5cxx11Ev
FNDA:4,_ZNK5Catch12_GLOBAL__N_123ConsoleAssertionPrinter28printReconstructedExpressionEv
FNDA:74,_ZN5Catch10startsWithERKNSt7__cxx1112basic_stringIcSt11char_traitsIcESaIcEEEc
FNDA:0,_ZNK5Catch8Matchers9StdString12RegexMatcher5matchERKNSt7__cxx1112basic_stringIcSt11char_traitsIcESaIcEEE
FNDA:0,_ZN5Catch5clara6detail12invokeLambdaIbZNS_21makeCommandLineParserERNS_10ConfigDataEEUlbE8_EENS1_11BasicResultINS1_15ParseResultTypeEEERKT0_RKNSt7__cxx1112basic_stringIcSt11char_traitsIcESaIcEEE
FNDA:4,_ZN5Catch15AssertionResultC2ERKNS_13AssertionInfoERKNS_19AssertionResultDataE
FNDA:0,_ZNK5Catch17ListeningReporter7isMultiEv
FNDA:2,_ZN5Catch7cleanUpEv
FNDA:0,_ZN5Catch21StreamingReporterBaseINS_21TestEventListenerBaseEE17testGroupStartingERKNS_9GroupInfoE
FNDA:0,_ZN5Catch8literalsli2_aEe
FNDA:0,_ZN5Catch11MessageInfoaSEOS0_
FNDA:2,_ZN5Catch5clara6detail7ExeName3setERKNSt7__cxx1112basic_stringIcSt11char_traitsIcESaIcEEE
FNDA:0,_ZN5Catch21StreamingReporterBaseINS_15CompactReporterEE13testCaseEndedERKNS_13TestCaseStatsE
FNDA:0,_ZN5Catch22CumulativeReporterBaseINS_13JunitReporterEE17testGroupStartingERKNS_9GroupInfoE
FNDA:0,_ZN5Catch11StringMakerIP5ActorvE7convertIS1_EENSt7__cxx1112basic_stringIcSt11char_traitsIcESaIcEEEPT_
FNDA:0,_ZN5Catch6Detail9stringifyIdEENSt7__cxx1112basic_stringIcSt11char_traitsIcESaIcEEERKT_
FNDA:0,_ZN5Catch11MessageInfoD2Ev
FNDA:0,_ZN5Catch5clara6detail11BoundLambdaIZNS_21makeCommandLineParserERNS_10ConfigDataEEUlRKNSt7__cxx1112basic_stringIcSt11char_traitsIcESaIcEEEE4_ED0Ev
FNDA:2,_ZN5Catch5clara6detail11BasicResultINS1_15ParseResultTypeEE2okIS3_EES4_RKT_
FNDA:0,_ZNK5Catch12_GLOBAL__N_116AssertionPrinter15printResultTypeENS_6Colour4CodeERKNSt7__cxx1112basic_stringIcSt11char_traitsIcESaIcEEE
FNDA:0,_ZN5Catch12_GLOBAL__N_116AssertionPrinter5printEv
FNDA:0,_ZNK5Catch10BinaryExprIbbE29streamReconstructedExpressionERSo
FNDA:0,_ZNK5Catch16TestCaseTracking12IndexTracker14isIndexTrackerEv
FNDA:2,_ZN5Catch13StringStreams7cleanupEv
FNDA:0,_ZN5Catch17IReporterRegistryD0Ev
FNDA:2,_ZN5Catch18IStreamingReporterC2Ev
FNDA:6,_ZN5Catch16AssertionHandler10handleExprIbEEvRKNS_7ExprLhsIT_EE
FNDA:4,_ZN5Catch12_GLOBAL__N_123ConsoleAssertionPrinterC2ERSoRKNS_14AssertionStatsEb
FNDA:2,_ZN5Catch5clara6detail11convertIntoERKNSt7__cxx1112basic_stringIcSt11char_traitsIcESaIcEEERS7_
FNDA:0,_ZN5Catch9XmlWriter14writeAttributeERKNSt7__cxx1112basic_stringIcSt11char_traitsIcESaIcEEEb
FNDA:0,_ZNK5Catch6detail12_GLOBAL__N_114DebugOutStream6streamEv
FNDA:0,_ZN5Catch5clara6detail16BoundFlagRefBaseD0Ev
FNDA:0,_ZN12_GLOBAL__N_112passedStringEv
FNDA:0,_ZN5Catch11MessageInfoC2ERKS0_
FNDA:0,_ZNK5Catch12_GLOBAL__N_116AssertionPrinter10printIssueERKNSt7__cxx1112basic_stringIcSt11char_traitsIcESaIcEEE
FNDA:7,_ZN5Catch15ConsoleReporter17printHeaderStringERKNSt7__cxx1112basic_stringIcSt11char_traitsIcESaIcEEEm
FNDA:0,_ZN5Catch22CumulativeReporterBaseINS_13JunitReporterEE11SectionNodeD2Ev
FNDA:0,_ZNK5Catch6Detail6Approx8toStringB5cxx11Ev
FNDA:0,_ZN5Catch7Session11libIdentifyEv
FNDA:0,_ZN5Catch16RedirectedStreamD2Ev
FNDA:7,_ZN5Catch5clara8TextFlow6Column13initialIndentEm
FNDA:0,_ZNK5Catch10BinaryExprIRKmRKiE29streamReconstructedExpressionERSo
FNDA:4,_ZN5Catch20ReusableStringStreamlsIA67_cEERS0_RKT_
FNDA:0,_ZNK5Catch15WildcardPattern7matchesERKNSt7__cxx1112basic_stringIcSt11char_traitsIcESaIcEEE
FNDA:6,_ZN5Catch6Detail9stringifyI9directionEENSt7__cxx1112basic_stringIcSt11char_traitsIcESaIcEEERKT_
FNDA:0,_ZN5Catch6Detail9stringifyIP5ActorEENSt7__cxx1112basic_stringIcSt11char_traitsIcESaIcEEERKT_
FNDA:2,_ZN5Catch14IResultCaptureC2Ev
FNDA:74,_ZN5Catch21StreamingReporterBaseINS_15ConsoleReporterEE16testCaseStartingERKNS_12TestCaseInfoE
FNDA:2,_ZN5Catch12_GLOBAL__N_115PosixColourImplD2Ev
FNDA:1,_ZN5Catch10BinaryExprIRKP5ActorRKP11SimpleActorEC2EbS4_NS_9StringRefES8_
FNDA:0,_ZNK5Catch6Counts5allOkEv
FNDA:0,_ZN5Catch20ReusableStringStreamlsIA15_cEERS0_RKT_
FNDA:0,_ZN5CatchplB5cxx11EPKcRKNS_9StringRefE
FNDA:0,_ZNK5Catch5clara6detail15ResultValueBaseINS1_15ParseResultTypeEE5valueEv
FNDA:112,_ZN5Catch5clara6detail20ComposableParserImplINS1_7ExeNameEEC2ERKS4_
FNDA:0,_ZN5Catch5clara6detail13LambdaInvokerIvE6invokeIZNS_21makeCommandLineParserERNS_10ConfigDataEEUlbE8_bEENS1_11BasicResultINS1_15ParseResultTypeEEERKT_RKT0_
FNDA:0,_ZN5Catch5clara8TextFlow7ColumnsC2ERKS2_
FNDA:0,_ZN5Catch12_GLOBAL__N_111RegistryHub16registerTagAliasERKNSt7__cxx1112basic_stringIcSt11char_traitsIcESaIcEEES9_RKNS_14SourceLineInfoE
FNDA:0,_ZN5Catch5clara6detail12invokeLambdaINSt7__cxx1112basic_stringIcSt11char_traitsIcESaIcEEEZNS_21makeCommandLineParserERNS_10ConfigDataEEUlRKS8_E5_EENS1_11BasicResultINS1_15ParseResultTypeEEERKT0_SC_
FNDA:0,_ZN5Catch20ReusableStringStreamlsIA53_cEERS0_RKT_
FNDA:0,_ZN5Catch12ITestInvokerD0Ev
FNDA:2,_ZN5Catch12_GLOBAL__N_111RegistryHubD2Ev
FNDA:90,_ZN5Catch10RunContext20invokeActiveTestCaseEv
FNDA:0,_ZN5Catch5clara6detail11convertIntoERKNSt7__cxx1112basic_stringIcSt11char_traitsIcESaIcEEERb
FNDA:0,_ZN5Catch16AssertionHandler25handleThrowingCallSkippedEv
FNDA:0,_ZNK5Catch15CompactReporter14getPreferencesEv
FNDA:2,_ZN5Catch15ConsoleReporter12testRunEndedERKNS_12TestRunStatsE
FNDA:16,_ZN5Catch12_GLOBAL__N_110ColumnInfoD2Ev
FNDA:0,_ZZN5Catch5clara6detail4HelpC4ERbENKUlbE_clEb
FNDA:117,_ZN5Catch7SectionD2Ev
FNDA:11,_ZN5Catch5clara8TextFlow6Column6indentEm
FNDA:0,_ZN5Catch9XmlWriter12writeCommentERKNSt7__cxx1112basic_stringIcSt11char_traitsIcESaIcEEE
FNDA:1,_ZN5Catch16TestCaseTracking11TrackerBase23markAsNeedingAnotherRunEv
FNDA:2,_ZN5Catch5clara6detail13ParserRefImplINS1_3OptEEC2IZNS_21makeCommandLineParserERNS_10ConfigDataEEUlRKNSt7__cxx1112basic_stringIcSt11char_traitsIcESaIcEEEE4_EERKT_SF_
FNDA:0,_ZN5Catch5clara6detail13LambdaInvokerINS1_11BasicResultINS1_15ParseResultTypeEEEE6invokeIZNS_21makeCommandLineParserERNS_10ConfigDataEEUlRKNSt7__cxx1112basic_stringIcSt11char_traitsIcESaIcEEEE3_SF_EES5_RKT_RKT0_
FNDA:0,_ZN5CatchplB5cxx11ERKNS_9StringRefES2_
FNDA:0,_ZN5Catch5clara6detail13LambdaInvokerINS1_11BasicResultINS1_15ParseResultTypeEEEE6invokeIZNS_21makeCommandLineParserERNS_10ConfigDataEEUlRKNSt7__cxx1112basic_stringIcSt11char_traitsIcESaIcEEEE0_SF_EES5_RKT_RKT0_
FNDA:0,_ZN5Catch5clara6detail6ParseraSERKS2_
FNDA:152,_ZN5Catch6OptionINS_12TestCaseInfoEE5resetEv
FNDA:2,_ZN5Catch10RunContext17testGroupStartingERKNSt7__cxx1112basic_stringIcSt11char_traitsIcESaIcEEEmm
FNDA:0,_ZN5Catch13ScopedMessageC2ERKNS_14MessageBuilderE
FNDA:121,_ZN5Catch6CountsC2Ev
FNDA:0,_ZN5Catch5clara6detail12invokeLambdaINSt7__cxx1112basic_stringIcSt11char_traitsIcESaIcEEEZNS_21makeCommandLineParserERNS_10ConfigDataEEUlRKS8_E2_EENS1_11BasicResultINS1_15ParseResultTypeEEERKT0_SC_
FNDA:0,_ZN5Catch5clara6detail15ResultValueBaseINS1_10ParseStateEEC2ENS1_10ResultBase4TypeE
FNDA:2,_ZN5Catch28IExceptionTranslatorRegistryD2Ev
FNDA:4,_ZN5Catch5clara6detail15ResultValueBaseINS1_10ParseStateEED2Ev
FNDA:0,_ZN5Catch8literalsli2_aEy
FNDA:0,_ZN5Catch11StringMakerIavE7convertB5cxx11Ea
FNDA:1,_ZN5Catch20ReusableStringStreamlsIA64_cEERS0_RKT_
FNDA:0,_ZNK5Catch12_GLOBAL__N_116AssertionPrinter23printOriginalExpressionEv
FNDA:2,_ZN5Catch5clara6detail3OptC2IZNS_21makeCommandLineParserERNS_10ConfigDataEEUlRKNSt7__cxx1112basic_stringIcSt11char_traitsIcESaIcEEEE5_EERKT_SD_
FNDA:6,_ZN5Catch7ExprLhsIRKmEeqIiEEKNS_10BinaryExprIS2_RKT_EES8_
FNDA:6,_ZNK5Catch7ExprLhsIbE13makeUnaryExprEv
FNDA:0,_ZN5Catch11StringMakerI9ActorInfovE7convertIS1_EENSt9enable_ifIXntsrNS_6Detail18IsStreamInsertableIT_EE5valueENSt7__cxx1112basic_stringIcSt11char_traitsIcESaIcEEEE4typeERKS7_
FNDA:0,_ZN5Catch12_GLOBAL__N_121enforceNotReservedTagERKNSt7__cxx1112basic_stringIcSt11char_traitsIcESaIcEEERKNS_14SourceLineInfoE
FNDA:12,_ZNK5Catch9StringRefixEm
FNDA:90,_ZNK5Catch16TestCaseTracking11TrackerBase23isSuccessfullyCompletedEv
FNDA:0,_ZN5Catch13MessageStreamD2Ev
FNDA:35,_ZN5Catch10BinaryExprIRKiS2_ED2Ev
FNDA:2,_ZN5Catch5clara6detail11BoundLambdaIZNS_21makeCommandLineParserERNS_10ConfigDataEEUlbE8_ED2Ev
FNDA:2,main
FNDA:0,_ZN5Catch21StreamingReporterBaseINS_21TestEventListenerBaseEE19noMatchingTestCasesERKNSt7__cxx1112basic_stringIcSt11char_traitsIcESaIcEEE
FNDA:0,_ZNK5Catch15AssertionResult16getTestMacroNameEv
FNDA:4,_ZN5Catch20ReusableStringStreamlsIA38_cEERS0_RKT_
FNDA:2,_ZN5Catch6ConfigD2Ev
FNDA:0,_ZN5Catch5clara6detail12normaliseOptERKNSt7__cxx1112basic_stringIcSt11char_traitsIcESaIcEEE
FNDA:0,_ZN5Catch9to_stringIiEENSt7__cxx1112basic_stringIcSt11char_traitsIcESaIcEEERKT_
FNDA:0,_ZN5Catch6Detail9stringifyINSt7__cxx1112basic_stringIwSt11char_traitsIwESaIwEEEEENS3_IcS4_IcESaIcEEERKT_
FNDA:0,_ZNK5Catch16RedirectedStdErr3strB5cxx11Ev
FNDA:135,_ZN5Catch16AssertionHandlerD2Ev
FNDA:0,_ZNK5Catch7Session8showHelpEv
FNDA:0,_ZN5Catch16TestCaseTracking12IndexTrackerD0Ev
FNDA:152,_ZN5Catch21StreamingReporterBaseINS_15ConsoleReporterEE15sectionStartingERKNS_11SectionInfoE
FNDA:8,_ZNK5Catch19AssertionResultData21reconstructExpressionB5cxx11Ev
FNDA:0,_ZN5Catch20ReusableStringStreamlsIA17_cEERS0_RKT_
FNDA:11,_ZN5Catch5clara8TextFlow6Column8iteratorC2ERKS2_
FNDA:2,_ZN5Catch21StreamingReporterBaseINS_15ConsoleReporterEE17testGroupStartingERKNS_9GroupInfoE
FNDA:0,_ZN5Catch11StringMakerINSt7__cxx1112basic_stringIcSt11char_traitsIcESaIcEEEvE7convertERKS6_
FNDA:0,_ZN5Catch15CompactReporterD0Ev
FNDA:117,_ZNK5Catch16TestCaseTracking11TrackerBase6isOpenEv
FNDA:170,_ZNK5Catch14SourceLineInfoeqERKS0_
FNDA:135,_ZN5Catch16AssertionHandlerC2ENS_9StringRefERKNS_14SourceLineInfoES1_NS_17ResultDisposition5FlagsE
FNDA:0,_ZN5Catch6detail12_GLOBAL__N_110FileStreamC2ENS_9StringRefE
FNDA:0,_ZNK5Catch6detail12_GLOBAL__N_110FileStream6streamEv
FNDA:0,_ZN5Catch5clara6detail11BoundLambdaIZNS_21makeCommandLineParserERNS_10ConfigDataEEUlRKNSt7__cxx1112basic_stringIcSt11char_traitsIcESaIcEEEE1_E8setValueESC_
FNDA:0,_ZN5Catch12_GLOBAL__N_111RegistryHub18registerTranslatorEPKNS_20IExceptionTranslatorE
FNDA:0,_ZN5Catch16TagAliasRegistryD0Ev
FNDA:0,_ZNK5Catch8Matchers8Floating16WithinAbsMatcher8describeB5cxx11Ev
FNDA:0,_ZN5Catch16TestCaseTracking8ITrackerD0Ev
FNDA:0,_ZN5Catch20ReusableStringStreamlsIdEERS0_RKT_
FNDA:0,_ZN5Catch8Matchers9StdString17StartsWithMatcherD0Ev
FNDA:0,_ZN5CatchlsINS_12_GLOBAL__N_18DurationEEERNS_12TablePrinterES4_RKT_
FNDA:0,_ZNK5Catch21StreamingReporterBaseINS_11XmlReporterEE14getPreferencesEv
FNDA:116,_ZN5Catch5clara6detail6ParserD2Ev
FNDA:207,_ZN5Catch11SectionInfoC2ERKNS_14SourceLineInfoERKNSt7__cxx1112basic_stringIcSt11char_traitsIcESaIcEEE
FNDA:2,_ZN5Catch21makeCommandLineParserERNS_10ConfigDataE
FNDA:0,_ZNK5Catch5Timer22getElapsedMillisecondsEv
FNDA:52,_ZN5Catch5clara6detail20ComposableParserImplINS1_3OptEEC2Ev
FNDA:0,_ZN5Catch11XmlReporter15writeSourceInfoERKNS_14SourceLineInfoE
FNDA:0,_ZN5Catch5clara6detail15ResultValueBaseINS1_10ParseStateEEaSERKS4_
FNDA:8,_ZNK5Catch14LazyExpressioncvbEv
FNDA:2,_ZN5Catch10ConfigDataC2Ev
FNDA:0,_ZN5Catch16ReporterRegistryD0Ev
FNDA:0,_ZN5Catch22CumulativeReporterBaseINS_13JunitReporterEE4NodeINS_13TestCaseStatsENS2_11SectionNodeEEC2ERKS4_
FNDA:0,_ZN5Catch5clara6detail11BoundLambdaIZNS_21makeCommandLineParserERNS_10ConfigDataEEUlRKNSt7__cxx1112basic_stringIcSt11char_traitsIcESaIcEEEE3_E8setValueESC_
FNDA:0,_ZN5Catch5clara6detail11BasicResultINS1_10ParseStateEEC2ENS1_10ResultBase4TypeERKNSt7__cxx1112basic_stringIcSt11char_traitsIcESaIcEEE
FNDA:0,_ZN5Catch11MessageInfoC2ERKNSt7__cxx1112basic_stringIcSt11char_traitsIcESaIcEEERKNS_14SourceLineInfoENS_9ResultWas6OfTypeE
FNDA:0,_ZN5Catch12_GLOBAL__N_116AssertionPrinter12printMessageEv
FNDA:0,_ZN5Catch5clara6detail3ArgaSERKS2_
FNDA:0,_ZN5Catch12_GLOBAL__N_116AssertionPrinter18printExpressionWasEv
FNDA:189,_ZN5Catch16TestCaseTracking8ITrackerD2Ev
FNDA:2,_ZN5Catch7Session16applyCommandLineEiPKPKc
FNDA:76,_ZN5Catch8LazyStatINS_12TestCaseInfoEE5resetEv
FNDA:0,_ZN5Catch5clara6detail11BasicResultINS1_10ParseStateEEaSEOS4_
FNDA:131,_ZN5Catch10RunContext15assertionPassedEv
FNDA:2,_ZN5Catch14TestSpecParser8testSpecEv
FNDA:0,_ZN5Catch12_GLOBAL__N_111headerValueEh
FNDA:2,_ZNK5Catch5clara6detail20ComposableParserImplINS1_7ExeNameEEorINS1_4HelpEEENS1_6ParserERKT_
FNDA:0,_ZN5Catch7TagInfoD2Ev
FNDA:6,_ZN5Catch20ReusableStringStreamlsIA26_cEERS0_RKT_
FNDA:2,_ZN5Catch10ConfigDataC2ERKS0_
FNDA:0,_ZN5Catch20ReusableStringStreamlsIyEERS0_RKT_
FNDA:0,_ZN5Catch22CumulativeReporterBaseINS_13JunitReporterEE14assertionEndedERKNS_14AssertionStatsE
FNDA:2,_ZN5Catch6TotalsC2Ev
FNDA:0,_ZN5Catch5clara8TextFlow7Columns8iteratorppEv
FNDA:0,_ZN5Catch17ListeningReporter12sectionEndedERKNS_12SectionStatsE
FNDA:0,_ZN5Catch6Detail9stringifyIDnEENSt7__cxx1112basic_stringIcSt11char_traitsIcESaIcEEERKT_
FNDA:2,_ZN5Catch17ITagAliasRegistryD2Ev
FNDA:16,_ZN5Catch12compareEqualI9directionS1_EEbRKT_RKT0_
FNDA:0,_ZN5Catch17ListeningReporter12testRunEndedERKNS_12TestRunStatsE
FNDA:2,_ZNK5Catch5clara6detail11TokenStreamcvbEv
FNDA:2,_ZN5Catch21StreamingReporterBaseINS_15ConsoleReporterEE12testRunEndedERKNS_12TestRunStatsE
FNDA:3,_ZN5Catch20ReusableStringStreamlsIA21_cEERS0_RKT_
FNDA:0,_ZN5Catch21TestEventListenerBaseD2Ev
FNDA:10,_ZN5Catch14getRegistryHubEv
FNDA:0,_ZN5Catch12TestRunStatsD0Ev
FNDA:0,_ZN5Catch27ExceptionTranslatorRegistry18registerTranslatorEPKNS_20IExceptionTranslatorE
FNDA:2,_ZN5Catch5clara6detail4ArgsC2EiPKPKc
FNDA:2,_ZN5Catch5clara6detail15BoundFlagLambdaIZNS1_4HelpC4ERbEUlbE_ED2Ev
FNDA:0,_ZN5Catch16TestCaseTracking12IndexTrackerD2Ev
FNDA:135,_ZNK5Catch20ITransientExpression9getResultEv
FNDA:9,_ZN5Catch10BinaryExprIRKmRKiED2Ev
FNDA:0,_ZN5Catch11StringMakerIyvE7convertB5cxx11Ey
FNDA:8,_ZN5Catch12_GLOBAL__N_110ColumnInfoC2ERKS1_
FNDA:2,_ZN5Catch14TestGroupStatsD2Ev
FNDA:0,_ZN5Catch8Matchers4Impl11MatcherBaseIdED2Ev
FNDA:0,_ZN5Catch16ReporterRegistry16registerListenerERKSt10shared_ptrINS_16IReporterFactoryEE
FNDA:0,_ZN5Catch9XmlWriter12startElementERKNSt7__cxx1112basic_stringIcSt11char_traitsIcESaIcEEE
FNDA:2,_ZN5Catch5clara6detail6ParseroRERKNS1_7ExeNameE
FNDA:2,_ZN5Catch7VersionC2EjjjPKcj
FNDA:2,_ZN5Catch6ConfigC2ERKNS_10ConfigDataE
FNDA:0,_ZN12_GLOBAL__N_19bothOrAllEm
FNDA:0,_ZNK5Catch8Matchers9StdString11CasedString21caseSensitivitySuffixB5cxx11Ev
FNDA:49,_ZN5Catch6ColourC2ENS0_4CodeE
FNDA:2,_ZN5Catch14TestSpecParserC2ERKNS_17ITagAliasRegistryE
FNDA:2,_ZN5Catch7Context9setRunnerEPNS_7IRunnerE
FNDA:0,_ZN5Catch10fpToStringIdEENSt7__cxx1112basic_stringIcSt11char_traitsIcESaIcEEET_i
FNDA:0,_ZN5Catch17ListeningReporterC2Ev
FNDA:0,_ZN5Catch27getEstimatedClockResolutionEv
FNDA:0,_ZN5Catch12TestRunStatsC2ERKS0_
FNDA:0,_ZN5Catch8Matchers9StdString11CasedStringC2ERKS2_
FNDA:0,_ZZN5Catch21makeCommandLineParserERNS_10ConfigDataEENKUlRKNSt7__cxx1112basic_stringIcSt11char_traitsIcESaIcEEEE5_clES9_
FNDA:0,_ZN5Catch5clara6detail11BoundLambdaIZNS_21makeCommandLineParserERNS_10ConfigDataEEUlRKNSt7__cxx1112basic_stringIcSt11char_traitsIcESaIcEEEE_ED0Ev
FNDA:24,_ZN5Catch7ExprLhsIRKP11SimpleActorEneIDnEEKNS_10BinaryExprIS4_RKT_EESA_
FNDA:16,_ZNK5Catch15AssertionResult4isOkEv
FNDA:0,_ZN5Catch8Matchers4Impl11MatcherBaseINSt7__cxx1112basic_stringIcSt11char_traitsIcESaIcEEEED0Ev
FNDA:2,_ZN5Catch5clara6detail15ResultValueBaseINS1_15ParseResultTypeEED2Ev
FNDA:0,_ZN5Catch11XmlReporter14testGroupEndedERKNS_14TestGroupStatsE
FNDA:0,_ZN5Catch21StreamingReporterBaseINS_21TestEventListenerBaseEE16testCaseStartingERKNS_12TestCaseInfoE
FNDA:2,_ZN5Catch17ITestCaseRegistryC2Ev
FNDA:189,_ZN5Catch16TestCaseTracking14SectionTrackerC2ERKNS0_15NameAndLocationERNS0_14TrackerContextEPNS0_8ITrackerE
FNDA:0,_ZN5Catch13JunitReporter17testGroupStartingERKNS_9GroupInfoE
FNDA:0,_ZN5Catch8endsWithERKNSt7__cxx1112basic_stringIcSt11char_traitsIcESaIcEEEc
FNDA:0,_ZN5Catch5clara8TextFlow6SpacerC2Em
FNDA:0,_ZN5Catch11StringMakerImvE7convertB5cxx11Em
FNDA:2,_ZN5Catch17ReporterRegistrarINS_15ConsoleReporterEE15ReporterFactoryD2Ev
FNDA:8,_ZN5Catch15AssertionResultC2ERKS0_
FNDA:0,_ZN5Catch23shouldContinueOnFailureEi
FNDA:2,_ZN5Catch5clara6detail13BoundValueRefIiEC2ERi
FNDA:2,_ZN5Catch11StringMakerIxvE7convertB5cxx11Ex
FNDA:2,_ZN5Catch11TestRunInfoC2ERKNSt7__cxx1112basic_stringIcSt11char_traitsIcESaIcEEE
FNDA:24,_ZN5Catch10BinaryExprIRKP11SimpleActorRKDnED2Ev
FNDA:0,_ZN5Catch16TestCaseTracking12IndexTracker7acquireERNS0_14TrackerContextERKNS0_15NameAndLocationEi
FNDA:0,_ZNK5Catch14SourceLineInfoltERKS0_
FNDA:0,_ZN5Catch12ratio_stringISt5ratioILl1ELl1000000000000000EEE6symbolB5cxx11Ev
FNDA:0,_ZN5Catch5clara6detail13BoundValueRefIiE8setValueERKNSt7__cxx1112basic_stringIcSt11char_traitsIcESaIcEEE
FNDA:2,_ZNK5Catch5clara6detail11BasicResultINS1_10ParseStateEE9enforceOkEv
FNDA:4,_ZN5Catch12_GLOBAL__N_1lsERSoRKNS_20ITransientExpressionE
FNDA:0,_ZN5Catch5clara8TextFlow6SpacerD2Ev
FNDA:0,_ZN5Catch5clara6detail5TokenC2EOS2_
FNDA:0,_ZN5Catch9XmlWriter14writeAttributeImEERS0_RKNSt7__cxx1112basic_stringIcSt11char_traitsIcESaIcEEERKT_
FNDA:2,_ZNK5Catch5clara6detail6Parser5parseERKNSt7__cxx1112basic_stringIcSt11char_traitsIcESaIcEEERKNS1_11TokenStreamE
FNDA:0,_ZN5Catch22CumulativeReporterBaseINS_13JunitReporterEE4NodeINS_14TestGroupStatsENS3_INS_13TestCaseStatsENS2_11SectionNodeEEEEC2ERKS4_
FNDA:16,_ZN5Catch19AssertionResultDataD2Ev
FNDA:0,_ZN5Catch6detail12_GLOBAL__N_113StreamBufImplINS1_17OutputDebugWriterELm256EE8overflowEi
FNDA:4,_ZN5Catch10ConfigDataD2Ev
FNDA:0,_ZN5Catch5clara6detail11BoundLambdaIZNS_21makeCommandLineParserERNS_10ConfigDataEEUliE7_ED0Ev
FNDA:0,_ZN5Catch5clara6detail11BasicResultIvEC2EOS3_
FNDA:0,_ZN5Catch6Detail13rangeToStringIN9__gnu_cxx17__normal_iteratorIPKiSt6vectorIiSaIiEEEEEENSt7__cxx1112basic_stringIcSt11char_traitsIcESaIcEEET_SG_
FNDA:2,_ZN5Catch17ReporterRegistrarINS_15CompactReporterEE15ReporterFactoryC2Ev
FNDA:0,_ZNK5Catch10RunContext8reporterEv
FNDA:82,_ZN5Catch21getMutableRegistryHubEv
FNDA:3,_ZN5Catch10BinaryExprIRKibED2Ev
FNDA:0,_ZN5Catch5clara6detail11BoundLambdaIZNS_21makeCommandLineParserERNS_10ConfigDataEEUlRKNSt7__cxx1112basic_stringIcSt11char_traitsIcESaIcEEEE0_E8setValueESC_
FNDA:0,_ZNK5Catch10RunContext18getCurrentTestNameB5cxx11Ev
FNDA:0,_ZNK5Catch8Matchers9StdString15EndsWithMatcher5matchERKNSt7__cxx1112basic_stringIcSt11char_traitsIcESaIcEEE
FNDA:0,_ZN5Catch21StreamingReporterBaseINS_15ConsoleReporterEED0Ev
FNDA:2,_ZN5Catch27ExceptionTranslatorRegistryD2Ev
FNDA:0,_ZN5Catch21StreamingReporterBaseINS_15CompactReporterEE16testCaseStartingERKNS_12TestCaseInfoE
FNDA:68,_ZN5Catch14SectionEndInfoD2Ev
FNDA:0,_ZN5Catch6Detail17rawMemoryToStringB5cxx11EPKvm
FNDA:0,_ZN5Catch11StringMakerINS_6Detail6ApproxEvE7convertB5cxx11ERKS2_
FNDA:0,_ZN5Catch12TablePrinter4openEv
FNDA:52,_ZN5Catch5clara6detail13ParserRefImplINS1_3OptEEclERKNSt7__cxx1112basic_stringIcSt11char_traitsIcESaIcEEE
FNDA:8,_ZN5Catch5clara6detail13BoundValueRefINSt7__cxx1112basic_stringIcSt11char_traitsIcESaIcEEEED2Ev
FNDA:0,_ZNK5Catch12_GLOBAL__N_18Duration13unitsAsStringEv
FNDA:2,_ZNK5Catch12_GLOBAL__N_111RegistryHub19getTagAliasRegistryEv
FNDA:152,_ZN5Catch10RunContext24testForMissingAssertionsERNS_6CountsE
FNDA:6,_ZN5Catch5clara6detail13ParserRefImplINS1_3OptEEC2INSt7__cxx1112basic_stringIcSt11char_traitsIcESaIcEEEEERT_RKSB_
FNDA:0,_ZN5Catch9XmlWriter13ScopedElementaSEOS1_
FNDA:0,_ZN5Catch8Matchers8Floating17WithinUlpsMatcherD2Ev
FNDA:0,_ZN5Catch12_GLOBAL__N_111RegistryHub16registerListenerERKSt10shared_ptrINS_16IReporterFactoryEE
FNDA:0,_ZN5Catch9MatchExprINSt7__cxx1112basic_stringIcSt11char_traitsIcESaIcEEERKNS_8Matchers4Impl11MatcherBaseIS6_EEEC2ERKS6_SC_NS_9StringRefE
FNDA:0,_ZN5Catch4trimERKNSt7__cxx1112basic_stringIcSt11char_traitsIcESaIcEEE
FNDA:0,_ZN5Catch22CumulativeReporterBaseINS_13JunitReporterEE8skipTestERKNS_12TestCaseInfoE
FNDA:0,_ZN5Catch21StreamingReporterBaseINS_11XmlReporterEED0Ev
FNDA:2,_ZN5Catch16TestCaseTracking14TrackerContextD2Ev
FNDA:11,_ZN5Catch5clara8TextFlow12isWhitespaceEc
FNDA:145,_ZN5Catch13StringStreams3addEv
FNDA:74,_ZN5Catch10RunContext7runTestERKNS_8TestCaseE
FNDA:0,_ZN5Catch8Matchers8EndsWithERKNSt7__cxx1112basic_stringIcSt11char_traitsIcESaIcEEENS_13CaseSensitive6ChoiceE
FNDA:2,_ZN5Catch8LazyStatINS_11TestRunInfoEEaSERKS1_
FNDA:2,_ZN5Catch14ReporterConfigD2Ev
FNDA:0,_ZN5Catch15ConsoleReporter19printSummaryDividerEv
FNDA:2,_ZN5Catch5clara6detail10ParseStateC2ENS1_15ParseResultTypeERKNS1_11TokenStreamE
FNDA:699,_ZN5Catch11SectionInfoD2Ev
FNDA:0,_ZN5Catch17ListeningReporter11addListenerEOSt10unique_ptrINS_18IStreamingReporterESt14default_deleteIS2_EE
FNDA:2,_ZN5Catch5clara6detail13ParserRefImplINS1_3OptEE8optionalEv
FNDA:0,_ZN5Catch5clara6detail11BoundLambdaIZNS_21makeCommandLineParserERNS_10ConfigDataEEUliE7_E8setValueERKNSt7__cxx1112basic_stringIcSt11char_traitsIcESaIcEEE
FNDA:0,_ZN5Catch9XmlWriter14writeAttributeIdEERS0_RKNSt7__cxx1112basic_stringIcSt11char_traitsIcESaIcEEERKT_
FNDA:0,_ZN5Catch12_GLOBAL__N_112NoColourImplD2Ev
FNDA:0,_ZNK5Catch6Config14showInvisiblesEv
FNDA:0,_ZNK5Catch5clara6detail3Opt5parseERKNSt7__cxx1112basic_stringIcSt11char_traitsIcESaIcEEERKNS1_11TokenStreamE
FNDA:0,_ZN5Catch5clara6detail13BoundValueRefIiED0Ev
FNDA:650,_ZN5Catch5clara6detail20ComposableParserImplINS1_3OptEEC2EOS4_
FNDA:2,_ZN5Catch7IConfigD2Ev
FNDA:0,_ZN5Catch11StringMakerIPKcvE7convertB5cxx11ES2_
FNDA:0,_ZN5Catch21StreamingReporterBaseINS_15CompactReporterEE15testRunStartingERKNS_11TestRunInfoE
FNDA:0,_ZN5Catch21StreamingReporterBaseINS_11XmlReporterEED2Ev
FNDA:9,_ZN5Catch20ReusableStringStreamlsIA34_cEERS0_RKT_
FNDA:0,_ZN5Catch21StreamingReporterBaseINS_21TestEventListenerBaseEED2Ev
FNDA:2,_ZNK5Catch9StringRef5emptyEv
FNDA:0,_ZN5Catch9XmlWriter14writeAttributeIA4_cEERS0_RKNSt7__cxx1112basic_stringIcSt11char_traitsIcESaIcEEERKT_
FNDA:16,_ZN5Catch21shouldSuppressFailureEi
FNDA:2,_ZN5Catch5clara6detail13ParserRefImplINS1_3OptEEC2IZNS_21makeCommandLineParserERNS_10ConfigDataEEUlRKNSt7__cxx1112basic_stringIcSt11char_traitsIcESaIcEEEE3_EERKT_SF_
FNDA:0,_ZN5Catch21StreamingReporterBaseINS_21TestEventListenerBaseEE13testCaseEndedERKNS_13TestCaseStatsE
FNDA:0,_ZN5Catch16RedirectedStdErrD2Ev
FNDA:3,_ZN5Catch10BinaryExprIRKibEC2EbS2_NS_9StringRefEb
FNDA:2,_ZN5Catch8TestSpec6FilteraSEOS1_
FNDA:0,_ZN5Catch8TestSpec7PatternD0Ev
FNDA:2,_ZN5Catch7ContextD0Ev
FNDA:0,_ZN5Catch21StreamingReporterBaseINS_15CompactReporterEE15sectionStartingERKNS_11SectionInfoE
FNDA:0,_ZN5Catch21StreamingReporterBaseINS_11XmlReporterEE23getSupportedVerbositiesEv
FNDA:0,_ZN5Catch5clara6detail4HelpD0Ev
FNDA:2,_ZN5Catch5clara6detail11BasicResultINS1_10ParseStateEEC2EOS4_
FNDA:0,_ZN5Catch24StartupExceptionRegistry3addERKNSt15__exception_ptr13exception_ptrE
FNDA:4,_ZN5Catch15compareNotEqualI9directionRKS1_EEbRKT_OT0_
FNDA:0,_ZN5Catch20ReusableStringStreamlsIcEERS0_RKT_
FNDA:2,_ZN5Catch8LazyStatINS_11TestRunInfoEE5resetEv
FNDA:0,_ZNK5Catch5clara6detail16BoundFlagRefBase6isFlagEv
FNDA:0,_ZNK5Catch5clara6detail6Parser13writeToStreamERSo
FNDA:0,_ZN5Catch5clara6detail13LambdaInvokerINS1_11BasicResultINS1_15ParseResultTypeEEEE6invokeIZNS1_4HelpC4ERbEUlbE_bEES5_RKT_RKT0_
FNDA:0,_ZN5Catch10BinaryExprIRKiS2_ED0Ev
FNDA:3,_ZN5Catch7ExprLhsIRKiEeqEb
FNDA:4,_ZN5Catch5clara6detail20ComposableParserImplINS1_3ArgEEC2ERKS4_
FNDA:74,_ZNK5Catch6Config11allowThrowsEv
FNDA:11,_ZN5Catch5clara8TextFlow6Column8iteratorC2ERKS2_m
FNDA:331,_ZNK5Catch16TestCaseTracking11TrackerBase10isCompleteEv
FNDA:0,_ZN5Catch9XmlWriter13scopedElementERKNSt7__cxx1112basic_stringIcSt11char_traitsIcESaIcEEE
FNDA:0,_ZNK5Catch9StringRef5c_strEv
FNDA:2,_ZN5Catch5clara6detail11TokenStream10loadBufferEv
FNDA:16,_ZN5Catch7ExprLhsIRK9directionEeqIS1_EEKNS_10BinaryExprIS3_RKT_EES9_
FNDA:98,_ZN5Catch12_GLOBAL__N_115PosixColourImpl3useENS_6Colour4CodeE
FNDA:3,_ZN5Catch14SectionEndInfoC2ERKS0_
FNDA:0,_ZN5Catch5clara6detail12invokeLambdaINSt7__cxx1112basic_stringIcSt11char_traitsIcESaIcEEEZNS_21makeCommandLineParserERNS_10ConfigDataEEUlRKS8_E_EENS1_11BasicResultINS1_15ParseResultTypeEEERKT0_SC_
FNDA:4,_ZNK5Catch12_GLOBAL__N_123ConsoleAssertionPrinter12printMessageEv
FNDA:0,_ZN5Catch11MessageInfoC2EOS0_
FNDA:0,_ZN5Catch5clara6detail11BoundLambdaIZNS_21makeCommandLineParserERNS_10ConfigDataEEUlRKNSt7__cxx1112basic_stringIcSt11char_traitsIcESaIcEEEE5_E8setValueESC_
FNDA:74,_ZN5Catch11NameAndTagsC2ERKNS_9StringRefES3_
FNDA:0,_ZN5Catch10BinaryExprIRKmRKiED0Ev
FNDA:62,_ZN5Catch19uncaught_exceptionsEv
FNDA:0,_ZN5Catch9XmlWriter13ScopedElementC2EPS0_
FNDA:0,_ZN5Catch6detail12_GLOBAL__N_117OutputDebugWriterclERKNSt7__cxx1112basic_stringIcSt11char_traitsIcESaIcEEE
FNDA:2,_ZN5Catch6OptionINS_15AssertionResultEED2Ev
FNDA:0,_ZN5Catch20ReusableStringStream3getEv
FNDA:135,_ZN5Catch10RunContext18resetAssertionInfoEv
FNDA:3,_ZNK5Catch6Config26warnAboutMissingAssertionsEv
FNDA:0,_ZN5Catch24handleExceptionMatchExprERNS_16AssertionHandlerERKNSt7__cxx1112basic_stringIcSt11char_traitsIcESaIcEEENS_9StringRefE
FNDA:0,_ZN5Catch6OptionImEaSERKm
FNDA:0,_ZN5Catch9XmlWriter13ScopedElement9writeTextERKNSt7__cxx1112basic_stringIcSt11char_traitsIcESaIcEEEb
FNDA:0,_ZN5Catch6detail12_GLOBAL__N_110FileStreamD2Ev
FNDA:0,_ZN5Catch9XmlEncodeC2ERKNSt7__cxx1112basic_stringIcSt11char_traitsIcESaIcEEENS0_7ForWhatE
FNDA:0,_ZN5Catch13JunitReporterD2Ev
FNDA:0,_ZN5Catch8TestSpec10TagPatternD0Ev
FNDA:0,_ZN5Catch10RunContext14benchmarkEndedERKNS_14BenchmarkStatsE
FNDA:2,_ZNK5Catch6Config8listTagsEv
FNDA:6,_ZN5Catch8TestSpec6FilterC2ERKS1_
FNDA:0,_ZN5Catch8Matchers8ContainsERKNSt7__cxx1112basic_stringIcSt11char_traitsIcESaIcEEENS_13CaseSensitive6ChoiceE
FNDA:0,_ZN5Catch16TestCaseTracking14TrackerContext6endRunEv
FNDA:90,_ZNK5Catch21TestInvokerAsFunction6invokeEv
FNDA:2,_ZNK5Catch5clara6detail10ParserBase5parseERKNS1_4ArgsE
FNDA:810,_ZN5Catch16TestCaseTracking15NameAndLocationC2ERKS1_
FNDA:0,_ZN5Catch5clara6detail15ResultValueBaseIvED0Ev
FNDA:4,_ZN5Catch5clara6detail13ParserRefImplINS1_3ArgEEC2ERKS4_
FNDA:0,_ZN5Catch10RunContext16handleIncompleteERKNS_13AssertionInfoE
FNDA:2,_ZN5Catch5clara6detail11BoundLambdaIZNS_21makeCommandLineParserERNS_10ConfigDataEEUlRKNSt7__cxx1112basic_stringIcSt11char_traitsIcESaIcEEEE5_ED2Ev
FNDA:2,_ZNK5Catch6Config9listTestsEv
FNDA:11,_ZN5Catch5clara8TextFlow6ColumnC2ERKNSt7__cxx1112basic_stringIcSt11char_traitsIcESaIcEEE
FNDA:2,_ZN5Catch16ReporterRegistryC2Ev
FNDA:2,_ZNK5Catch14TestSpecParser9subStringB5cxx11Ev
FNDA:2,_ZN5Catch6OptionINS_9GroupInfoEEC2Ev
FNDA:0,_ZN12_GLOBAL__N_115almostEqualUlpsIdEEbT_S1_i
FNDA:230,_ZN5Catch12TablePrinter5closeEv
FNDA:0,_ZN5Catch17ListeningReporter19noMatchingTestCasesERKNSt7__cxx1112basic_stringIcSt11char_traitsIcESaIcEEE
FNDA:35,_ZN5Catch10BinaryExprIRKiS2_EC2EbS2_NS_9StringRefES2_
FNDA:6,_ZN5Catch5clara6detail20ComposableParserImplINS1_3ArgEED2Ev
FNDA:24,_ZN5Catch10DecomposerleIP11SimpleActorEENS_7ExprLhsIRKT_EES7_
FNDA:0,_ZN5Catch6ColourC2EOS0_
FNDA:0,_ZN5Catch7Session10configDataEv
FNDA:0,_ZN5Catch17ListeningReporter14assertionEndedERKNS_14AssertionStatsE
FNDA:0,_ZN5Catch22CumulativeReporterBaseINS_13JunitReporterEE15sectionStartingERKNS_11SectionInfoE
FNDA:0,_ZN5Catch11StringMakerISt6vectorIiSaIiEEvE7convertB5cxx11ERKS3_
FNDA:0,_ZN5Catch6Detail6ApproxC2IyvEERKT_
FNDA:0,_ZN5Catch13JunitReporter15writeAssertionsERKNS_22CumulativeReporterBaseIS0_E11SectionNodeE
FNDA:0,_ZN5Catch21StreamingReporterBaseINS_11XmlReporterEE8skipTestERKNS_12TestCaseInfoE
FNDA:0,_ZN5Catch5clara6detail11BoundLambdaIZNS_21makeCommandLineParserERNS_10ConfigDataEEUlbE8_ED0Ev
FNDA:0,_ZN5CatchlsERNS_12TablePrinterENS_12_GLOBAL__N_18RowBreakE
FNDA:0,_ZN5Catch5clara6detail11BoundLambdaIZNS_21makeCommandLineParserERNS_10ConfigDataEEUlRKNSt7__cxx1112basic_stringIcSt11char_traitsIcESaIcEEEE2_ED0Ev
FNDA:0,_ZN5Catch13JunitReporter14testGroupEndedERKNS_14TestGroupStatsE
FNDA:2,_ZN5Catch5clara6detail15ResultValueBaseINS1_10ParseStateEEC2ERKS4_
FNDA:0,_ZN5Catch9StringRef13takeOwnershipEv
FNDA:0,_ZN5Catch5clara6detail10ParserBaseD0Ev
FNDA:0,_ZN5Catch8TestSpec15ExcludedPatternD0Ev
FNDA:0,_ZN5Catch5clara8TextFlow7Columns8iteratorC2ERKS2_NS3_6EndTagE
FNDA:4,_ZNK5Catch15AssertionResult20getExpressionInMacroB5cxx11Ev
FNDA:2,_ZN5Catch5clara6detail4ArgsD2Ev
FNDA:0,_ZN5Catch5clara6detail11BasicResultINS1_10ParseStateEE12runtimeErrorERKNSt7__cxx1112basic_stringIcSt11char_traitsIcESaIcEEE
FNDA:0,_ZN5Catch5clara6detail11BasicResultINS1_10ParseStateEED0Ev
FNDA:2,_ZN5Catch5clara6detail7ExeNameaSEOS2_
FNDA:2,_ZN5Catch16TestCaseTracking14TrackerContextC2Ev
FNDA:0,_ZN5Catch5clara8TextFlow7ColumnsD2Ev
FNDA:0,_ZN5Catch9XmlWriter13ScopedElement14writeAttributeIbEERS1_RKNSt7__cxx1112basic_stringIcSt11char_traitsIcESaIcEEERKT_
FNDA:0,_ZN5Catch13parseTestSpecERKNSt7__cxx1112basic_stringIcSt11char_traitsIcESaIcEEE
FNDA:0,_ZN5Catch6Detail19convertUnstreamableI9ActorInfoEENSt9enable_ifIXaantsrSt7is_enumIT_E5valuentsrSt10is_base_ofISt9exceptionS5_E5valueENSt7__cxx1112basic_stringIcSt11char_traitsIcESaIcEEEE4typeERKS5_
FNDA:0,_ZN5Catch11XmlReporter14getDescriptionB5cxx11Ev
FNDA:314,_ZN5Catch16getResultCaptureEv
FNDA:0,_ZN5Catch17ReporterRegistrarINS_15CompactReporterEE15ReporterFactoryD0Ev
FNDA:0,_ZN5Catch5clara6detail12invokeLambdaINSt7__cxx1112basic_stringIcSt11char_traitsIcESaIcEEEZNS_21makeCommandLineParserERNS_10ConfigDataEEUlRKS8_E4_EENS1_11BasicResultINS1_15ParseResultTypeEEERKT0_SC_
FNDA:0,_ZN12_GLOBAL__N_112failedStringEv
FNDA:11,_ZNK5Catch5clara8TextFlow6Column3endEv
FNDA:0,_ZN5Catch12_GLOBAL__N_111fileNameTagERKSt6vectorINSt7__cxx1112basic_stringIcSt11char_traitsIcESaIcEEESaIS7_EE
FNDA:0,_ZN5Catch5clara6detail13LambdaInvokerINS1_11BasicResultINS1_15ParseResultTypeEEEE6invokeIZNS_21makeCommandLineParserERNS_10ConfigDataEEUlRKNSt7__cxx1112basic_stringIcSt11char_traitsIcESaIcEEEE1_SF_EES5_RKT_RKT0_
FNDA:2,_ZN5Catch5clara6detail11BoundLambdaIZNS_21makeCommandLineParserERNS_10ConfigDataEEUlRKNSt7__cxx1112basic_stringIcSt11char_traitsIcESaIcEEEE0_EC2ERKSD_
FNDA:0,_ZN5Catch5clara6detail15BoundFlagLambdaIZNS1_4HelpC4ERbEUlbE_ED0Ev
FNDA:2,_ZN5Catch24StartupExceptionRegistryD2Ev
FNDA:0,_ZNK5Catch12TestCaseInfo6throwsEv
FNDA:0,_ZN5Catch4clogEv
FNDA:0,_ZNK5Catch5clara6detail13ParserRefImplINS1_3ArgEE4hintB5cxx11Ev
FNDA:0,_ZN5Catch8Matchers9StdString15ContainsMatcherC2ERKNS1_11CasedStringE
FNDA:4,_ZN5Catch6OptionINS_12TestCaseInfoEEptEv
FNDA:0,_ZN12_GLOBAL__N_115almostEqualUlpsIfEEbT_S1_i
FNDA:0,_ZN5Catch21StreamingReporterBaseINS_15CompactReporterEE14testGroupEndedERKNS_14TestGroupStatsE
FNDA:2,_ZNK5Catch16ReporterRegistry6createERKNSt7__cxx1112basic_stringIcSt11char_traitsIcESaIcEEERKSt10shared_ptrIKNS_7IConfigEE
FNDA:2,_ZN5Catch5clara6detail11BoundLambdaIZNS_21makeCommandLineParserERNS_10ConfigDataEEUlRKNSt7__cxx1112basic_stringIcSt11char_traitsIcESaIcEEEE5_EC2ERKSD_
FNDA:0,_ZN5Catch14TestGroupStatsC2ERKS0_
FNDA:2,_ZN5Catch5clara6detail11BasicResultINS1_10ParseStateEECI2NS1_15ResultValueBaseIS3_EEENS1_10ResultBase4TypeERKS3_
FNDA:33,_ZN5Catch10DecomposerleISt6vectorIiSaIiEEEENS_7ExprLhsIRKT_EES8_
FNDA:74,_ZN5Catch8LazyStatINS_12TestCaseInfoEEaSERKS1_
FNDA:2,_ZN5Catch12TestRunStatsC2ERKNS_11TestRunInfoERKNS_6TotalsEb
FNDA:152,_ZN5Catch16TestCaseTracking11TrackerBase4openEv
FNDA:0,_ZN5Catch5clara6detail13ParserRefImplINS1_3ArgEEaSERKS4_
FNDA:0,_ZNK5Catch5clara6detail11BasicResultINS1_15ParseResultTypeEE9enforceOkEv
FNDA:32,_ZN5Catch7ExprLhsIRKiEeqIiEEKNS_10BinaryExprIS2_RKT_EES8_
FNDA:0,_ZNK5Catch5clara6detail10ParseState4typeEv
FNDA:2,_ZN5Catch5clara6detail15BoundFlagLambdaIZNS_21makeCommandLineParserERNS_10ConfigDataEEUlbE6_ED2Ev
FNDA:2,_ZN5Catch5clara6detail11BoundLambdaIZNS_21makeCommandLineParserERNS_10ConfigDataEEUlRKNSt7__cxx1112basic_stringIcSt11char_traitsIcESaIcEEEE2_ED2Ev
FNDA:0,_ZN5Catch5clara6detail12BoundFlagRef7setFlagEb
FNDA:0,_ZN5Catch5clara6detail11BasicResultIvECI2NS1_10ResultBaseEENS4_4TypeE
FNDA:0,_ZN5Catch10BinaryExprIRKSt6vectorIiSaIiEES5_ED0Ev
FNDA:24,_ZN5Catch7ExprLhsIRKP11SimpleActorEC2ES4_
FNDA:2,_ZN5Catch10RunContext14testGroupEndedERKNSt7__cxx1112basic_stringIcSt11char_traitsIcESaIcEEERKNS_6TotalsEmm
FNDA:2,_ZN5Catch15ConsoleReporter16lazyPrintRunInfoEv
FNDA:0,_ZN5Catch17ITestCaseRegistryD0Ev
FNDA:0,_ZN5Catch21StreamingReporterBaseINS_11XmlReporterEE19noMatchingTestCasesERKNSt7__cxx1112basic_stringIcSt11char_traitsIcESaIcEEE
FNDA:0,_ZNK5Catch9MatchExprINSt7__cxx1112basic_stringIcSt11char_traitsIcESaIcEEERKNS_8Matchers4Impl11MatcherBaseIS6_EEE29streamReconstructedExpressionERSo
FNDA:117,_ZN5Catch7SectionC2ERKNS_11SectionInfoE
FNDA:222,_ZN5Catch8TestCaseC2ERKS0_
FNDA:16,_ZN5Catch20ReusableStringStreamlsIA29_cEERS0_RKT_
FNDA:92,_ZN5Catch7seedRngERKNS_7IConfigE
FNDA:2,_ZN5Catch17ReporterRegistrarINS_15ConsoleReporterEE15ReporterFactoryC2Ev
FNDA:207,_ZN5Catch16TestCaseTracking11TrackerBase9findChildERKNS0_15NameAndLocationE
FNDA:2,_ZN5Catch12_GLOBAL__N_114createReporterERKNSt7__cxx1112basic_stringIcSt11char_traitsIcESaIcEEERKSt10shared_ptrIKNS_7IConfigEE
FNDA:0,_ZN5Catch6detail12_GLOBAL__N_114DebugOutStreamD0Ev
FNDA:0,_ZN5Catch10RunContextD0Ev
FNDA:0,_ZN5Catch7IConfigD0Ev
FNDA:0,_ZN5Catch9XmlWriter14writeAttributeIA5_cEERS0_RKNSt7__cxx1112basic_stringIcSt11char_traitsIcESaIcEEERKT_
FNDA:0,_ZNK5Catch5clara6detail11BasicResultIvE12errorMessageB5cxx11Ev
FNDA:2210,_ZN5Catch5clara6detail20ComposableParserImplINS1_3OptEED2Ev
FNDA:0,_ZN5Catch20ReusableStringStreamlsIA12_cEERS0_RKT_
FNDA:0,_ZN5Catch7Context9getRunnerEv
FNDA:0,_ZN5Catch22CumulativeReporterBaseINS_13JunitReporterEE4NodeINS_12TestRunStatsENS3_INS_14TestGroupStatsENS3_INS_13TestCaseStatsENS2_11SectionNodeEEEEEED0Ev
FNDA:2,_ZN5Catch5clara6detail4HelpD2Ev
FNDA:2,_ZN5Catch19IMutableRegistryHubD2Ev
FNDA:0,_ZN5Catch20ITransientExpressionD0Ev
FNDA:0,_ZN5Catch20ReusableStringStreamlsINS_14SourceLineInfoEEERS0_RKT_
FNDA:74,_ZN5Catch8TestCaseC2EPNS_12ITestInvokerEONS_12TestCaseInfoE
FNDA:94,_ZNK5Catch6Config7rngSeedEv
FNDA:2,_ZN5Catch5clara6detail13ParserRefImplINS1_3OptEEC2IZNS_21makeCommandLineParserERNS_10ConfigDataEEUlbE8_EERKT_RKNSt7__cxx1112basic_stringIcSt11char_traitsIcESaIcEEE
FNDA:0,_ZNK5Catch5clara6detail11BasicResultINS1_15ParseResultTypeEE12errorMessageB5cxx11Ev
FNDA:74,_ZN5Catch12ITestInvokerD2Ev
FNDA:0,_ZN5Catch8Matchers4Impl11MatcherBaseIdEC2Ev
FNDA:4,_ZN5Catch20ReusableStringStreamlsIA27_cEERS0_RKT_
FNDA:0,_ZN5Catch6Detail9stringifyISt6vectorIiSaIiEEEENSt7__cxx1112basic_stringIcSt11char_traitsIcESaIcEEERKT_
FNDA:2,_ZN5Catch5clara6detail11BoundLambdaIZNS_21makeCommandLineParserERNS_10ConfigDataEEUliE7_EC2ERKS5_
FNDA:152,_ZN5Catch15ConsoleReporter12sectionEndedERKNS_12SectionStatsE
FNDA:4,_ZN5Catch8LazyStatINS_9GroupInfoEE5resetEv
FNDA:0,_ZZN5Catch12_GLOBAL__N_111fileNameTagERKSt6vectorINSt7__cxx1112basic_stringIcSt11char_traitsIcESaIcEEESaIS7_EEENKUlRKS7_E_clESD_
FNDA:100,_ZN5Catch4coutEv
FNDA:2,_ZN5Catch19IMutableRegistryHubC2Ev
FNDA:0,_ZN5Catch12_GLOBAL__N_112NoColourImpl3useENS_6Colour4CodeE
FNDA:0,_ZN5Catch10RunContext17benchmarkStartingERKNS_13BenchmarkInfoE
FNDA:0,_ZN5Catch21StreamingReporterBaseINS_11XmlReporterEE12testRunEndedERKNS_12TestRunStatsE
FNDA:2,_ZNK5Catch7Context9getConfigEv
FNDA:2,_ZN5Catch7Context16setResultCaptureEPNS_14IResultCaptureE
FNDA:0,_ZN5Catch21StreamingReporterBaseINS_21TestEventListenerBaseEED0Ev
FNDA:32,_ZN5Catch5clara6detail17BoundValueRefBaseD2Ev
FNDA:2,_ZN5Catch14getLineOfCharsILc126EEEPKcv
FNDA:6,_ZN5Catch11SectionInfoC2EOS0_
FNDA:0,_ZN5Catch14replaceInPlaceERNSt7__cxx1112basic_stringIcSt11char_traitsIcESaIcEEERKS5_S8_
FNDA:2,_ZN5Catch16ReporterRegistryD2Ev
FNDA:20,_ZN5Catch10BinaryExprIRK9directionS3_ED2Ev
FNDA:2,_ZN5Catch17ReporterRegistrarINS_13JunitReporterEE15ReporterFactoryC2Ev
FNDA:0,_ZNK5Catch10BinaryExprIRKibE29streamReconstructedExpressionERSo
FNDA:2,_ZN5Catch17ReporterRegistrarINS_11XmlReporterEEC2ERKNSt7__cxx1112basic_stringIcSt11char_traitsIcESaIcEEE
FNDA:0,_ZN5Catch11XmlReporterD0Ev
FNDA:0,_ZN5Catch5clara6detail11BoundLambdaIZNS_21makeCommandLineParserERNS_10ConfigDataEEUlRKNSt7__cxx1112basic_stringIcSt11char_traitsIcESaIcEEEE5_ED0Ev
FNDA:0,_ZN5Catch11StringMakerIfvE7convertB5cxx11Ef
FNDA:0,_ZN5Catch13JunitReporter13testCaseEndedERKNS_13TestCaseStatsE
FNDA:4,_ZNK5Catch12_GLOBAL__N_123ConsoleAssertionPrinter15printSourceInfoEv
FNDA:0,_ZN5Catch8Matchers9StdString15ContainsMatcherD2Ev
FNDA:8,_ZNK5Catch15AssertionResult13hasExpressionEv
FNDA:16,_ZN5Catch4isOkENS_9ResultWas6OfTypeE
FNDA:0,_ZN5Catch9XmlWriter18newlineIfNecessaryEv
FNDA:0,_ZNK5Catch5clara6detail3Arg5parseERKNSt7__cxx1112basic_stringIcSt11char_traitsIcESaIcEEERKNS1_11TokenStreamE
FNDA:0,_ZNK5Catch7Session3cliEv
FNDA:2,_ZN5Catch12_GLOBAL__N_111RegistryHubC2Ev
FNDA:2,_ZN5Catch27ExceptionTranslatorRegistryC2Ev
FNDA:222,_ZN5Catch6CountspLERKS0_
FNDA:0,_ZNK5Catch6OptionImE7valueOrERKm
FNDA:4,_ZN5Catch19AssertionResultDataC2ENS_9ResultWas6OfTypeERKNS_14LazyExpressionE
FNDA:2,_ZNK5Catch5clara6detail10ParseState15remainingTokensEv
FNDA:0,_ZN5Catch17ListeningReporter13testCaseEndedERKNS_13TestCaseStatsE
FNDA:0,_ZN5Catch5clara6detail11HelpColumnsD2Ev
FNDA:2,_ZN5Catch8TestSpecaSEOS0_
FNDA:151,_ZN5Catch16TestCaseTracking11TrackerBase5closeEv
FNDA:74,_ZN5Catch12TestCaseInfoC2ERKNSt7__cxx1112basic_stringIcSt11char_traitsIcESaIcEEES8_S8_RKSt6vectorIS6_SaIS6_EERKNS_14SourceLineInfoE
FNDA:0,_ZNK5Catch9UnaryExprIbE29streamReconstructedExpressionERSo
FNDA:316,_ZN5Catch17getCurrentContextEv
FNDA:11,_ZN5Catch5clara8TextFlowlsERSoRKNS1_6ColumnE
FNDA:2,_ZNK5Catch14ReporterConfig10fullConfigEv
FNDA:0,_ZN5Catch8Matchers9WithinAbsEdd
FNDA:0,_ZN5Catch14AssertionStatsD0Ev
FNDA:0,_ZN5Catch8endsWithERKNSt7__cxx1112basic_stringIcSt11char_traitsIcESaIcEEES7_
FNDA:2,_ZN5Catch18IStreamingReporterD2Ev
FNDA:0,_ZN5Catch11StringMakerIDnvE7convertB5cxx11EDn
FNDA:74,_ZN5Catch13TestCaseStatsD2Ev
FNDA:0,_ZN5Catch5clara6detail11BoundLambdaIZNS_21makeCommandLineParserERNS_10ConfigDataEEUlRKNSt7__cxx1112basic_stringIcSt11char_traitsIcESaIcEEEE_E8setValueESC_
FNDA:152,_ZN5Catch16TestCaseTracking11TrackerBase12moveToParentEv
FNDA:0,_ZN5Catch6Detail9stringifyIbEENSt7__cxx1112basic_stringIcSt11char_traitsIcESaIcEEERKT_
FNDA:0,_ZN5Catch21StreamingReporterBaseINS_11XmlReporterEE14testGroupEndedERKNS_14TestGroupStatsE
FNDA:2,_ZN5Catch6detail12_GLOBAL__N_110CoutStreamD2Ev
FNDA:1,_ZN5Catch10BinaryExprIbbEC2EbbNS_9StringRefEb
FNDA:0,_ZN5Catch12SectionStatsC2ERKS0_
FNDA:0,_ZN5Catch15CompactReporter17assertionStartingERKNS_13AssertionInfoE
FNDA:0,_ZN5Catch9XmlWriter14writeBlankLineEv
FNDA:2,_ZN5Catch5clara6detail4HelpC2ERb
FNDA:0,_ZN5Catch20ReusableStringStreamlsIA13_cEERS0_RKT_
FNDA:4,_ZN5Catch9GroupInfoC2ERKS0_
FNDA:0,_ZN5Catch14MessageBuilderD2Ev
FNDA:2,_ZN5Catch5clara6detail13ParserRefImplINS1_3ArgEEC2ISt6vectorINSt7__cxx1112basic_stringIcSt11char_traitsIcESaIcEEESaISC_EEEERT_RKSC_
FNDA:90,_ZN5Catch5clara6detail3OptixERKNSt7__cxx1112basic_stringIcSt11char_traitsIcESaIcEEE
FNDA:6,_ZN5Catch5clara8TextFlow16isBreakableAfterEc
FNDA:98,_ZN5Catch12_GLOBAL__N_115PosixColourImpl9setColourEPKc
FNDA:2,_ZN5Catch17ReporterRegistrarINS_11XmlReporterEE15ReporterFactoryD2Ev
FNDA:0,_ZNK5Catch17ReporterRegistrarINS_11XmlReporterEE15ReporterFactory14getDescriptionB5cxx11Ev
FNDA:2,_ZNK5Catch5clara6detail15ResultValueBaseINS1_10ParseStateEE5valueEv
FNDA:0,_ZN5Catch13JunitReporterC2ERKNS_14ReporterConfigE
FNDA:0,_ZN5Catch8Matchers8Floating16WithinAbsMatcherD2Ev
FNDA:2,_ZN5Catch5clara6detail11BoundLambdaIZNS_21makeCommandLineParserERNS_10ConfigDataEEUliE7_ED2Ev
FNDA:0,_ZN5Catch6detail12_GLOBAL__N_114DebugOutStreamC2Ev
FNDA:0,_ZN5Catch15IMutableContextD0Ev
FNDA:4,_ZN5Catch10RunContext16populateReactionERNS_17AssertionReactionE
FNDA:2,_ZN5Catch7IStreamD2Ev
FNDA:414,_ZN5Catch16TestCaseTracking11TrackerBase14TrackerHasNameC2ERKS2_
FNDA:0,_ZNK5Catch16TestCaseTracking11TrackerBase11hasChildrenEv
FNDA:0,_ZN5Catch6detail12_GLOBAL__N_110FileStreamD0Ev
FNDA:0,_ZN5Catch11StringMakerIlvE7convertB5cxx11El
FNDA:2,_ZN5Catch7IStreamC2Ev
FNDA:2,_ZN5Catch6OptionImED2Ev
FNDA:2,_ZN5Catch15ConsoleReporter11printTotalsERKNS_6TotalsE
FNDA:0,_ZNK5Catch17ReporterRegistrarINS_13JunitReporterEE15ReporterFactory14getDescriptionB5cxx11Ev
FNDA:0,_ZN5Catch5clara6detail12invokeLambdaIiZNS_21makeCommandLineParserERNS_10ConfigDataEEUliE7_EENS1_11BasicResultINS1_15ParseResultTypeEEERKT0_RKNSt7__cxx1112basic_stringIcSt11char_traitsIcESaIcEEE
FNDA:0,_ZN5Catch22CumulativeReporterBaseINS_13JunitReporterEE11SectionNodeC2ERKNS_12SectionStatsE
FNDA:90,_ZN5Catch21FatalConditionHandlerC2Ev
FNDA:2,_ZN5Catch6OptionINS_9GroupInfoEEaSERKS1_
FNDA:2,_ZN5Catch10ErrnoGuardD2Ev
FNDA:90,_ZN5Catch21FatalConditionHandlerD2Ev
FNDA:2,_ZN5Catch5clara6detail13ParserRefImplINS1_3OptEEC2IZNS_21makeCommandLineParserERNS_10ConfigDataEEUlRKNSt7__cxx1112basic_stringIcSt11char_traitsIcESaIcEEEE_EERKT_SF_
FNDA:0,_ZN5Catch11StringMakerIPKwvE7convertB5cxx11ES2_
FNDA:0,_ZN5Catch11XmlReporter15sectionStartingERKNS_11SectionInfoE
FNDA:74,_ZNK5Catch8TestSpec7matchesERKNS_12TestCaseInfoE
FNDA:2,_ZN5Catch7IRunnerC2Ev
FNDA:0,_ZN5Catch12ratio_stringISt5ratioILl1ELl1000000000000EEE6symbolB5cxx11Ev
FNDA:33,_ZN5Catch7ExprLhsIRKSt6vectorIiSaIiEEEC2ES5_
FNDA:0,_ZN5Catch16RedirectedStdOutC2Ev
FNDA:0,_ZN5Catch12_GLOBAL__N_113isReservedTagERKNSt7__cxx1112basic_stringIcSt11char_traitsIcESaIcEEE
FNDA:0,_ZN5Catch5clara8TextFlow6Column5widthEm
FNDA:0,_ZN5Catch7Session3cliERKNS_5clara6detail6ParserE
FNDA:0,_ZN5Catch9pluraliseC2EmRKNSt7__cxx1112basic_stringIcSt11char_traitsIcESaIcEEE
FNDA:0,_ZN5CatchorENS_17ResultDisposition5FlagsES1_
FNDA:0,_ZN5Catch20ReusableStringStreamlsIA9_cEERS0_RKT_
FNDA:0,_ZN5Catch5clara6detail7ExeNameD0Ev
FNDA:0,_ZN5Catch16AssertionHandler33handleUnexpectedInflightExceptionEv
FNDA:0,_ZN5Catch5clara6detail15ResultValueBaseINS1_15ParseResultTypeEEC2ENS1_10ResultBase4TypeE
FNDA:6,_ZN5Catch6OptionINS_11TestRunInfoEE5resetEv
FNDA:0,_ZN5Catch5clara6detail13ParserRefImplINS1_3OptEEaSERKS4_
FNDA:8,_ZN5Catch16IReporterFactoryD2Ev
FNDA:74,_ZNK5Catch6Config16getSectionsToRunB5cxx11Ev
FNDA:2,_ZN5Catch8LazyStatINS_12TestCaseInfoEEC2Ev
FNDA:0,_ZN5Catch12ratio_stringISt5ratioILl1ELl1000EEE6symbolB5cxx11Ev
FNDA:0,_ZN5Catch5clara6detail3OptD0Ev
FNDA:0,_ZN5Catch9pluraliseD2Ev
FNDA:2,_ZNK5Catch12TestRegistry17getAllTestsSortedERKNS_7IConfigE
FNDA:0,_ZN5Catch6Detail9stringifyIP11SimpleActorEENSt7__cxx1112basic_stringIcSt11char_traitsIcESaIcEEERKT_
FNDA:4,_ZNK5Catch6Counts9allPassedEv
FNDA:2,_ZN5Catch17ReporterRegistrarINS_15ConsoleReporterEEC2ERKNSt7__cxx1112basic_stringIcSt11char_traitsIcESaIcEEE
FNDA:2,_ZN5Catch12_GLOBAL__N_122platformColourInstanceEv
FNF:1607
FNH:748
DA:305,398
DA:319,402
DA:320,402
DA:321,402
DA:322,402
DA:381,148
DA:391,4
DA:438,377
DA:439,377
DA:440,377
DA:442,575
DA:443,575
DA:444,575
DA:445,575
DA:457,1075
DA:458,1075
DA:459,1075
DA:460,1075
DA:462,2
DA:463,2
DA:464,2
DA:465,2
DA:467,3304
DA:468,1652
DA:469,1652
DA:471,458
DA:472,458
DA:473,458
DA:474,458
DA:475,458
DA:476,458
DA:490,2
DA:491,2
DA:493,20
DA:494,20
DA:519,225
DA:520,225
DA:547,74
DA:553,74
DA:661,139
DA:669,345
DA:706,4
DA:723,262
DA:724,262
DA:725,262
DA:727,0
DA:801,0
DA:802,0
DA:824,0
DA:825,0
DA:861,6
DA:862,12
DA:865,6
DA:866,12
DA:872,0
DA:874,0
DA:886,10
DA:887,10
DA:1018,0
DA:1019,0
DA:1020,0
DA:1022,0
DA:1049,0
DA:1050,0
DA:1051,0
DA:1052,0
DA:1053,0
DA:1054,0
DA:1055,0
DA:1057,0
DA:1058,0
DA:1183,0
DA:1184,0
DA:1206,0
DA:1207,0
DA:1354,135
DA:1355,0
DA:1356,135
DA:1359,135
DA:1360,135
DA:1361,135
DA:1362,135
DA:1376,129
DA:1381,4
DA:1383,4
DA:1384,4
DA:1387,129
DA:1391,129
DA:1392,129
DA:1396,6
DA:1399,0
DA:1400,0
DA:1401,0
DA:1404,6
DA:1406,6
DA:1407,6
DA:1412,91
DA:1423,28
DA:1437,135
DA:1440,91
DA:1441,91
DA:1443,4
DA:1444,4
DA:1448,28
DA:1449,28
DA:1456,3
DA:1457,3
DA:1464,3
DA:1465,3
DA:1472,6
DA:1473,6
DA:1486,128
DA:1487,128
DA:1490,7
DA:1491,7
DA:1520,4
DA:1597,135
DA:1614,270
DA:1615,135
DA:1616,0
DA:1618,135
DA:1621,6
DA:1622,6
DA:1623,6
DA:1652,0
DA:1669,0
DA:1680,0
DA:1686,0
DA:1687,0
DA:1688,0
DA:1847,121
DA:1860,2
DA:1878,1191
DA:1894,74
DA:1912,117
DA:2025,4
DA:2037,4
DA:2070,0
DA:2075,4
DA:2155,0
DA:2156,0
DA:2272,0
DA:2299,0
DA:2301,0
DA:2313,0
DA:2322,0
DA:2445,0
DA:2454,0
DA:2533,0
DA:2543,0
DA:2551,0
DA:2555,0
DA:2559,0
DA:2563,0
DA:2568,0
DA:2769,0
DA:2774,0
DA:2778,0
DA:2779,0
DA:2781,0
DA:2782,0
DA:2783,0
DA:2784,0
DA:2785,0
DA:2787,0
DA:2788,0
DA:2852,1230
DA:2887,786
DA:2920,4
DA:3170,0
DA:3188,18
DA:3189,8
DA:3195,0
DA:3204,2
DA:3213,2
DA:3222,22
DA:3252,2
DA:3266,2
DA:3290,2
DA:3291,4
DA:3292,2
DA:3293,0
DA:3294,2
DA:3295,2
DA:3296,0
DA:3297,0
DA:3299,2
DA:3300,4
DA:3301,2
DA:3302,2
DA:3303,2
DA:3305,2
DA:3306,2
DA:3307,2
DA:3365,4
DA:3407,8
DA:3450,2
DA:3506,28
DA:3520,20
DA:3554,10
DA:3562,10
DA:3563,10
DA:3564,10
DA:3574,82
DA:3575,82
DA:3576,82
DA:3577,82
DA:3580,174
DA:3581,174
DA:3582,82
DA:3583,174
DA:3584,174
DA:3586,0
DA:3587,0
DA:3588,14
DA:3591,0
DA:3592,0
DA:3595,2
DA:3599,2
DA:3600,2
DA:3619,2
DA:3632,2
DA:3638,12
DA:3639,78
DA:3640,78
DA:3641,78
DA:3642,78
DA:3644,82
DA:3645,82
DA:3646,82
DA:3647,82
DA:3651,10
DA:3655,12
DA:3665,4
DA:3670,0
DA:3681,152
DA:3686,0
DA:3698,74
DA:3705,0
DA:3718,2
DA:3724,0
DA:3735,2
DA:3740,0
DA:3751,0
DA:3754,0
DA:3760,2
DA:3761,2
DA:3778,0
DA:3786,0
DA:3802,16
DA:3809,4
DA:3839,2
DA:3841,2
DA:3843,2
DA:3844,2
DA:3845,0
DA:3846,2
DA:3848,92
DA:3849,92
DA:3852,2
DA:3853,2
DA:3856,2
DA:3858,0
DA:3860,2
DA:3861,2
DA:3862,2
DA:3863,2
DA:3864,2
DA:3865,2
DA:3867,74
DA:3868,74
DA:3869,74
DA:3870,152
DA:3871,152
DA:3872,152
DA:3874,152
DA:3875,152
DA:3876,152
DA:3877,74
DA:3878,74
DA:3879,74
DA:3880,2
DA:3881,2
DA:3882,2
DA:3883,2
DA:3884,2
DA:3885,2
DA:3886,2
DA:3887,2
DA:3889,0
DA:3892,0
DA:3909,0
DA:3910,0
DA:3917,0
DA:3918,0
DA:3937,0
DA:3938,0
DA:3939,0
DA:3940,0
DA:3941,0
DA:3953,0
DA:3955,0
DA:3957,0
DA:3958,0
DA:3959,0
DA:3960,0
DA:3961,0
DA:3963,0
DA:3964,0
DA:3967,0
DA:3968,0
DA:3971,0
DA:3972,0
DA:3974,0
DA:3976,0
DA:3977,0
DA:3978,0
DA:3979,0
DA:3980,0
DA:3981,0
DA:3982,0
DA:3985,0
DA:3986,0
DA:3987,0
DA:3990,0
DA:3991,0
DA:3992,0
DA:3995,0
DA:3997,0
DA:3998,0
DA:3999,0
DA:4001,0
DA:4003,0
DA:4004,0
DA:4010,0
DA:4011,0
DA:4012,0
DA:4013,0
DA:4015,0
DA:4016,0
DA:4017,0
DA:4018,0
DA:4019,0
DA:4020,0
DA:4021,0
DA:4022,0
DA:4023,0
DA:4024,0
DA:4025,0
DA:4026,0
DA:4028,0
DA:4029,0
DA:4030,0
DA:4031,0
DA:4032,0
DA:4033,0
DA:4034,0
DA:4035,0
DA:4036,0
DA:4037,0
DA:4038,0
DA:4039,0
DA:4040,0
DA:4041,0
DA:4042,0
DA:4045,0
DA:4063,14
DA:4065,14
DA:4066,6
DA:4067,6
DA:4069,14
DA:4072,0
DA:4149,16
DA:4151,2
DA:4152,2
DA:4155,0
DA:4156,0
DA:4162,8
DA:4163,8
DA:4164,8
DA:4214,0
DA:4251,4
DA:4315,0
DA:4345,0
DA:4346,0
DA:4347,0
DA:4371,0
DA:4372,0
DA:4373,0
DA:4374,0
DA:4453,0
DA:4522,2729
DA:4533,378
DA:4561,4
DA:4588,189
DA:4599,1863
DA:4643,189
DA:4658,0
DA:4705,0
DA:4706,0
DA:4714,0
DA:4715,0
DA:4718,0
DA:4719,0
DA:4721,0
DA:4722,0
DA:4725,0
DA:4726,0
DA:4727,0
DA:4728,0
DA:4731,0
DA:4732,0
DA:4733,0
DA:4734,0
DA:4737,0
DA:4740,0
DA:4746,0
DA:4747,0
DA:4749,0
DA:4750,0
DA:4754,0
DA:4755,0
DA:4775,4
DA:4784,4
DA:4798,318
DA:4800,318
DA:4801,2
DA:4802,318
DA:4805,316
DA:4807,316
DA:5063,4
DA:5064,4
DA:5065,4
DA:5069,4
DA:5070,4
DA:5071,4
DA:5073,16
DA:5075,8
DA:5076,8
DA:5079,4
DA:5080,4
DA:5081,0
DA:5083,4
DA:5084,4
DA:5085,0
DA:5087,4
DA:5090,0
DA:5092,4
DA:5095,135
DA:5099,135
DA:5101,135
DA:5102,135
DA:5104,135
DA:5105,135
DA:5106,135
DA:5107,0
DA:5108,0
DA:5109,0
DA:5111,0
DA:5112,0
DA:5115,135
DA:5116,135
DA:5117,135
DA:5123,0
DA:5125,135
DA:5126,4
DA:5127,131
DA:5128,135
DA:5129,135
DA:5130,135
DA:5132,0
DA:5133,0
DA:5134,0
DA:5136,0
DA:5137,0
DA:5138,0
DA:5139,0
DA:5140,0
DA:5141,0
DA:5143,0
DA:5144,0
DA:5145,0
DA:5147,0
DA:5148,0
DA:5149,0
DA:5153,0
DA:5154,0
DA:5155,0
DA:5162,4
DA:5164,4
DA:5166,8
DA:5168,8
DA:5169,4
DA:5170,8
DA:5171,4
DA:5172,4
DA:5175,8
DA:5178,4
DA:5180,4
DA:5181,4
DA:5184,0
DA:5185,0
DA:5189,16
DA:5190,16
DA:5193,8
DA:5194,8
DA:5197,8
DA:5198,8
DA:5201,4
DA:5202,4
DA:5205,4
DA:5206,4
DA:5207,0
DA:5209,4
DA:5212,4
DA:5213,4
DA:5214,4
DA:5215,0
DA:5217,4
DA:5218,4
DA:5219,4
DA:5220,4
DA:5221,4
DA:5223,4
DA:5226,4
DA:5227,4
DA:5230,8
DA:5231,16
DA:5232,8
DA:5234,16
DA:5237,4
DA:5238,4
DA:5240,4
DA:5241,4
DA:5244,0
DA:5245,0
DA:5254,0
DA:5255,0
DA:5258,0
DA:5259,0
DA:5260,0
DA:5261,0
DA:5262,0
DA:5265,0
DA:5266,0
DA:5267,0
DA:5270,0
DA:5271,0
DA:5285,0
DA:5286,0
DA:5287,0
DA:5288,0
DA:5289,0
DA:5364,11
DA:5365,11
DA:5366,11
DA:5368,6
DA:5369,6
DA:5370,6
DA:5372,6
DA:5373,6
DA:5374,6
DA:5379,11
DA:5397,11
DA:5398,11
DA:5399,11
DA:5400,11
DA:5402,1031
DA:5404,7
DA:5405,7
DA:5406,7
DA:5408,14
DA:5409,14
DA:5410,19
DA:5411,13
DA:5414,12
DA:5415,12
DA:5417,12
DA:5418,12
DA:5419,12
DA:5420,944
DA:5421,466
DA:5423,12
DA:5424,11
DA:5427,1
DA:5428,13
DA:5429,6
DA:5430,1
DA:5431,0
DA:5433,1
DA:5434,1
DA:5436,0
DA:5437,0
DA:5440,12
DA:5442,24
DA:5443,24
DA:5444,24
DA:5447,12
DA:5448,12
DA:5452,11
DA:5453,11
DA:5454,11
DA:5455,11
DA:5456,11
DA:5457,0
DA:5458,11
DA:5460,12
DA:5461,12
DA:5462,12
DA:5463,12
DA:5464,1
DA:5466,11
DA:5469,12
DA:5470,12
DA:5471,12
DA:5472,0
DA:5474,14
DA:5475,1
DA:5477,12
DA:5478,11
DA:5479,11
DA:5481,12
DA:5482,1
DA:5483,12
DA:5491,23
DA:5493,45
DA:5494,34
DA:5495,34
DA:5497,23
DA:5498,23
DA:5503,11
DA:5505,0
DA:5506,0
DA:5507,0
DA:5508,0
DA:5510,11
DA:5511,11
DA:5512,11
DA:5514,7
DA:5515,7
DA:5516,7
DA:5519,0
DA:5520,11
DA:5521,11
DA:5523,11
DA:5524,11
DA:5525,23
DA:5526,12
DA:5527,11
DA:5529,1
DA:5530,12
DA:5532,11
DA:5544,0
DA:5547,0
DA:5548,0
DA:5549,0
DA:5552,0
DA:5557,0
DA:5565,0
DA:5566,0
DA:5567,0
DA:5569,0
DA:5571,0
DA:5572,0
DA:5573,0
DA:5576,0
DA:5577,0
DA:5578,0
DA:5580,0
DA:5582,0
DA:5583,0
DA:5584,0
DA:5589,0
DA:5590,0
DA:5592,0
DA:5593,0
DA:5595,0
DA:5596,0
DA:5597,0
DA:5598,0
DA:5599,0
DA:5600,0
DA:5601,0
DA:5603,0
DA:5606,0
DA:5609,0
DA:5611,0
DA:5612,0
DA:5613,0
DA:5614,0
DA:5616,0
DA:5626,0
DA:5627,0
DA:5629,0
DA:5630,0
DA:5631,0
DA:5633,0
DA:5634,0
DA:5635,0
DA:5636,0
DA:5639,0
DA:5641,0
DA:5642,0
DA:5643,0
DA:5644,0
DA:5646,0
DA:5647,0
DA:5649,0
DA:5659,0
DA:5660,0
DA:5661,0
DA:5662,0
DA:5663,0
DA:5700,2
DA:5706,2
DA:5707,2
DA:5708,2
DA:5715,2
DA:5716,2
DA:5725,0
DA:5730,0
DA:5731,0
DA:5739,18
DA:5745,2
DA:5746,2
DA:5749,2
DA:5750,0
DA:5752,2
DA:5753,0
DA:5754,0
DA:5755,0
DA:5756,0
DA:5757,0
DA:5758,0
DA:5760,0
DA:5761,0
DA:5762,0
DA:5763,0
DA:5764,0
DA:5767,0
DA:5771,0
DA:5774,2
DA:5777,2
DA:5779,2
DA:5780,2
DA:5781,2
DA:5783,2
DA:5784,2
DA:5789,0
DA:5790,0
DA:5791,0
DA:5794,0
DA:5795,0
DA:5796,0
DA:5799,0
DA:5800,0
DA:5801,0
DA:5803,0
DA:5804,0
DA:5805,0
DA:5807,0
DA:5811,2
DA:5818,4
DA:5819,6
DA:5829,2
DA:5830,2
DA:5831,2
DA:5835,0
DA:5837,2
DA:5838,2
DA:5839,2
DA:5840,2
DA:5842,4
DA:5843,4
DA:5844,4
DA:5846,0
DA:5847,0
DA:5848,0
DA:5849,0
DA:5850,0
DA:5851,0
DA:5852,0
DA:5855,6
DA:5856,6
DA:5857,4
DA:5858,12
DA:5866,0
DA:5868,0
DA:5872,8
DA:5875,0
DA:5877,0
DA:5879,0
DA:5880,0
DA:5883,4
DA:5884,0
DA:5885,0
DA:5886,0
DA:5888,2
DA:5889,0
DA:5890,0
DA:5893,2
DA:5897,2
DA:5898,2
DA:5899,2
DA:5900,0
DA:5901,2
DA:5905,0
DA:5907,0
DA:5909,0
DA:5910,0
DA:5912,4
DA:5920,10
DA:5923,2
DA:5924,2
DA:5925,2
DA:5926,2
DA:5928,0
DA:5929,2
DA:5940,0
DA:5946,0
DA:5947,0
DA:5948,0
DA:5949,0
DA:5950,0
DA:5951,0
DA:5953,0
DA:5955,2
DA:5956,2
DA:5957,2
DA:5959,0
DA:5960,0
DA:5961,0
DA:5962,0
DA:5963,0
DA:5964,0
DA:5965,0
DA:5967,0
DA:5968,0
DA:5989,56
DA:5990,56
DA:5991,0
DA:5992,0
DA:5994,64
DA:5997,48
DA:5999,0
DA:6003,10
DA:6006,10
DA:6008,2
DA:6009,2
DA:6014,4
DA:6017,4
DA:6019,0
DA:6021,0
DA:6022,0
DA:6023,0
DA:6024,0
DA:6025,0
DA:6026,0
DA:6030,20
DA:6033,20
DA:6035,0
DA:6036,0
DA:6037,0
DA:6046,0
DA:6047,0
DA:6054,0
DA:6055,0
DA:6056,0
DA:6061,0
DA:6062,0
DA:6063,0
DA:6064,0
DA:6066,0
DA:6070,18
DA:6074,18
DA:6076,0
DA:6077,0
DA:6082,4
DA:6088,4
DA:6090,0
DA:6091,0
DA:6099,2456
DA:6101,2450
DA:6102,0
DA:6104,0
DA:6106,2
DA:6107,2
DA:6112,4672
DA:6123,4378
DA:6130,24
DA:6134,12
DA:6136,12
DA:6137,12
DA:6140,18
DA:6142,18
DA:6143,18
DA:6145,54
DA:6146,54
DA:6147,54
DA:6150,2
DA:6151,2
DA:6152,2
DA:6160,0
DA:6161,0
DA:6164,0
DA:6165,0
DA:6166,0
DA:6168,0
DA:6171,0
DA:6174,234
DA:6184,6
DA:6186,2
DA:6187,2
DA:6188,2
DA:6196,0
DA:6197,0
DA:6200,0
DA:6201,2
DA:6203,2
DA:6206,4
DA:6208,2
DA:6209,2
DA:6210,2
DA:6212,0
DA:6216,10
DA:6218,2
DA:6220,0
DA:6221,0
DA:6222,0
DA:6223,0
DA:6225,0
DA:6226,0
DA:6227,0
DA:6228,0
DA:6230,0
DA:6231,0
DA:6233,0
DA:6234,0
DA:6235,0
DA:6237,0
DA:6241,0
DA:6247,0
DA:6250,4368
DA:6256,4
DA:6258,20
DA:6261,18
DA:6264,10
DA:6266,90
DA:6267,90
DA:6268,90
DA:6271,0
DA:6272,0
DA:6273,0
DA:6274,0
DA:6275,0
DA:6276,0
DA:6278,0
DA:6279,0
DA:6281,0
DA:6282,0
DA:6283,0
DA:6286,0
DA:6287,0
DA:6288,0
DA:6289,0
DA:6290,0
DA:6292,0
DA:6297,0
DA:6298,0
DA:6299,0
DA:6300,0
DA:6302,0
DA:6303,0
DA:6304,0
DA:6305,0
DA:6306,0
DA:6307,0
DA:6308,0
DA:6309,0
DA:6310,0
DA:6311,0
DA:6312,0
DA:6314,0
DA:6315,0
DA:6316,0
DA:6317,0
DA:6318,0
DA:6319,0
DA:6320,0
DA:6321,0
DA:6322,0
DA:6323,0
DA:6324,0
DA:6325,0
DA:6327,0
DA:6330,0
DA:6333,0
DA:6334,0
DA:6335,0
DA:6336,0
DA:6337,0
DA:6338,0
DA:6343,0
DA:6344,0
DA:6347,0
DA:6351,2
DA:6352,2
DA:6353,2
DA:6354,0
DA:6355,0
DA:6356,2
DA:6359,4
DA:6360,6
DA:6361,2
DA:6362,2
DA:6365,234
DA:6371,2
DA:6372,2
DA:6373,2
DA:6376,2
DA:6377,2
DA:6378,2
DA:6381,52
DA:6382,52
DA:6383,52
DA:6393,56
DA:6394,56
DA:6403,0
DA:6404,0
DA:6405,0
DA:6406,0
DA:6407,0
DA:6409,0
DA:6412,0
DA:6413,0
DA:6414,0
DA:6415,0
DA:6416,0
DA:6417,0
DA:6418,0
DA:6420,0
DA:6421,0
DA:6422,0
DA:6423,0
DA:6425,0
DA:6426,0
DA:6427,0
DA:6429,0
DA:6430,0
DA:6431,0
DA:6432,0
DA:6433,0
DA:6436,0
DA:6437,0
DA:6438,0
DA:6439,0
DA:6440,0
DA:6442,0
DA:6444,0
DA:6446,0
DA:6447,0
DA:6448,0
DA:6449,0
DA:6451,0
DA:6453,0
DA:6454,0
DA:6455,0
DA:6458,0
DA:6459,0
DA:6460,0
DA:6461,0
DA:6462,0
DA:6464,0
DA:6465,0
DA:6466,0
DA:6467,0
DA:6469,0
DA:6474,2
DA:6480,2
DA:6481,2
DA:6483,2
DA:6486,2
DA:6487,2
DA:6488,2
DA:6491,2
DA:6493,4
DA:6494,2
DA:6495,0
DA:6497,0
DA:6498,0
DA:6499,0
DA:6500,0
DA:6501,0
DA:6502,0
DA:6503,0
DA:6504,0
DA:6505,0
DA:6506,0
DA:6511,0
DA:6512,0
DA:6513,0
DA:6514,0
DA:6517,2
DA:6523,2
DA:6524,2
DA:6578,2
DA:6582,0
DA:6583,0
DA:6584,0
DA:6585,0
DA:6587,0
DA:6588,0
DA:6590,0
DA:6591,0
DA:6593,0
DA:6594,0
DA:6595,0
DA:6596,0
DA:6597,2
DA:6598,0
DA:6599,0
DA:6600,0
DA:6601,0
DA:6603,0
DA:6604,0
DA:6605,0
DA:6606,0
DA:6607,0
DA:6608,0
DA:6609,0
DA:6612,0
DA:6613,2
DA:6614,0
DA:6615,0
DA:6616,0
DA:6617,0
DA:6618,0
DA:6619,0
DA:6620,0
DA:6622,0
DA:6623,0
DA:6624,2
DA:6625,0
DA:6626,0
DA:6627,0
DA:6628,0
DA:6629,0
DA:6630,2
DA:6631,0
DA:6632,0
DA:6634,0
DA:6635,0
DA:6636,0
DA:6637,0
DA:6638,0
DA:6639,0
DA:6641,0
DA:6642,0
DA:6643,2
DA:6644,0
DA:6645,0
DA:6646,0
DA:6647,0
DA:6648,0
DA:6649,0
DA:6650,0
DA:6651,0
DA:6653,0
DA:6654,0
DA:6655,2
DA:6656,0
DA:6657,0
DA:6658,0
DA:6659,0
DA:6660,0
DA:6661,0
DA:6662,0
DA:6663,0
DA:6665,0
DA:6666,0
DA:6667,2
DA:6670,4
DA:6671,8
DA:6672,8
DA:6673,6
DA:6674,4
DA:6675,8
DA:6676,6
DA:6677,4
DA:6678,8
DA:6679,6
DA:6680,4
DA:6681,8
DA:6682,6
DA:6683,4
DA:6684,8
DA:6685,6
DA:6686,4
DA:6687,8
DA:6688,6
DA:6689,4
DA:6690,8
DA:6691,6
DA:6692,4
DA:6693,8
DA:6694,6
DA:6695,4
DA:6696,8
DA:6697,6
DA:6698,4
DA:6699,8
DA:6700,6
DA:6701,4
DA:6702,8
DA:6703,6
DA:6704,4
DA:6705,8
DA:6706,6
DA:6707,4
DA:6708,8
DA:6709,6
DA:6710,4
DA:6711,8
DA:6712,6
DA:6713,4
DA:6714,8
DA:6715,6
DA:6716,4
DA:6717,8
DA:6718,6
DA:6719,4
DA:6720,8
DA:6721,6
DA:6722,4
DA:6723,8
DA:6724,6
DA:6725,4
DA:6726,8
DA:6727,6
DA:6728,4
DA:6729,8
DA:6730,6
DA:6731,4
DA:6732,8
DA:6733,6
DA:6734,4
DA:6735,8
DA:6736,6
DA:6737,4
DA:6738,8
DA:6739,6
DA:6740,4
DA:6741,8
DA:6742,6
DA:6743,4
DA:6744,8
DA:6745,6
DA:6746,4
DA:6748,4
DA:6749,6
DA:6751,2
DA:6763,4
DA:6764,4
DA:6766,170
DA:6767,170
DA:6769,0
DA:6770,0
DA:6773,8
DA:6777,8
DA:6779,8
DA:6782,0
DA:6783,0
DA:6809,2
DA:6811,2
DA:6813,4
DA:6814,2
DA:6815,2
DA:6818,0
DA:6819,0
DA:6820,0
DA:6822,2
DA:6823,2
DA:6825,0
DA:6826,0
DA:6829,2
DA:6830,2
DA:6831,2
DA:6832,2
DA:6834,0
DA:6835,2
DA:6837,0
DA:6838,74
DA:6840,2
DA:6841,0
DA:6843,0
DA:6846,74
DA:6847,2
DA:6848,6
DA:6849,6
DA:6850,3
DA:6851,2
DA:6852,152
DA:6853,6
DA:6854,94
DA:6855,0
DA:6856,2
DA:6857,4
DA:6858,172
DA:6859,0
DA:6860,2
DA:6862,2
DA:6863,2
DA:6896,2
DA:6900,0
DA:6901,0
DA:6903,0
DA:6904,0
DA:6905,0
DA:6996,2
DA:6998,98
DA:6999,98
DA:7000,54
DA:7001,54
DA:7002,0
DA:7003,6
DA:7004,0
DA:7005,4
DA:7006,0
DA:7007,0
DA:7009,18
DA:7010,10
DA:7011,0
DA:7012,0
DA:7013,6
DA:7015,0
DA:7016,0
DA:7019,2
DA:7020,2
DA:7021,2
DA:7025,98
DA:7026,98
DA:7027,98
DA:7030,2
DA:7036,2
DA:7042,2
DA:7043,4
DA:7044,4
DA:7046,2
DA:7047,4
DA:7048,2
DA:7049,4
DA:7050,2
DA:7053,2
DA:7054,4
DA:7072,49
DA:7073,0
DA:7074,0
DA:7075,0
DA:7076,0
DA:7077,0
DA:7078,0
DA:7079,0
DA:7080,0
DA:7083,49
DA:7085,98
DA:7086,98
DA:7087,98
DA:7088,98
DA:7090,22
DA:7091,22
DA:7105,6
DA:7108,314
DA:7109,314
DA:7111,0
DA:7112,0
DA:7115,2
DA:7116,2
DA:7122,2
DA:7123,2
DA:7124,2
DA:7125,2
DA:7126,2
DA:7127,2
DA:7128,2
DA:7129,2
DA:7130,2
DA:7142,2
DA:7144,2
DA:7145,2
DA:7147,2
DA:7148,2
DA:7149,2
DA:7150,2
DA:7178,0
DA:7180,0
DA:7181,0
DA:7250,0
DA:7253,0
DA:7254,0
DA:7255,0
DA:7257,0
DA:7261,0
DA:7265,0
DA:7294,4
DA:7295,12
DA:7296,8
DA:7297,4
DA:7298,4
DA:7300,0
DA:7301,4
DA:7309,2
DA:7310,2
DA:7323,2
DA:7342,2
DA:7343,2
DA:7345,0
DA:7346,0
DA:7347,0
DA:7349,0
DA:7368,0
DA:7369,0
DA:7371,0
DA:7374,0
DA:7375,0
DA:7377,0
DA:7378,0
DA:7380,0
DA:7381,0
DA:7383,0
DA:7384,0
DA:7386,0
DA:7387,0
DA:7391,0
DA:7392,0
DA:7393,0
DA:7395,0
DA:7410,0
DA:7411,0
DA:7412,0
DA:7496,0
DA:7497,0
DA:7498,0
DA:7499,0
DA:7500,0
DA:7501,0
DA:7504,0
DA:7505,0
DA:7506,0
DA:7507,0
DA:7509,90
DA:7510,90
DA:7512,90
DA:7513,90
DA:7514,90
DA:7515,90
DA:7516,90
DA:7518,90
DA:7519,90
DA:7520,630
DA:7521,540
DA:7523,90
DA:7525,90
DA:7526,90
DA:7527,90
DA:7529,176
DA:7530,176
DA:7532,630
DA:7533,540
DA:7536,90
DA:7537,90
DA:7539,176
DA:7592,0
DA:7638,2
DA:7639,2
DA:7641,0
DA:7642,0
DA:7644,4
DA:7645,2
DA:7647,2
DA:7649,4
DA:7651,4
DA:7654,4
DA:7655,4
DA:7657,4
DA:7659,4
DA:7662,4
DA:7664,4
DA:7666,4
DA:7669,0
DA:7670,0
DA:7671,0
DA:7673,0
DA:7675,4
DA:7679,152
DA:7682,152
DA:7686,152
DA:7687,152
DA:7691,74
DA:7695,74
DA:7700,74
DA:7701,74
DA:7705,2
DA:7707,2
DA:7710,2
DA:7711,2
DA:7713,0
DA:7715,0
DA:7716,0
DA:7720,2
DA:7722,2
DA:7725,2
DA:7726,2
DA:7730,0
DA:7731,0
DA:7772,2
DA:7788,0
DA:7818,0
DA:7819,0
DA:7820,0
DA:7821,0
DA:7823,0
DA:7826,0
DA:7827,0
DA:7828,0
DA:7829,0
DA:7830,0
DA:7831,0
DA:7833,0
DA:7834,0
DA:7835,0
DA:7836,0
DA:7837,0
DA:7838,0
DA:7839,0
DA:7841,0
DA:7842,0
DA:7845,0
DA:7846,0
DA:7848,0
DA:7849,0
DA:7852,0
DA:7853,0
DA:7854,0
DA:7855,0
DA:7856,0
DA:7857,0
DA:7858,0
DA:7859,0
DA:7861,0
DA:7862,0
DA:7863,0
DA:7864,0
DA:7866,0
DA:7869,0
DA:7870,0
DA:7871,0
DA:7872,0
DA:7874,0
DA:7875,0
DA:7876,0
DA:7877,0
DA:7878,0
DA:7881,0
DA:7882,0
DA:7883,0
DA:7884,0
DA:7886,0
DA:7889,0
DA:7891,0
DA:7892,0
DA:7893,0
DA:7894,0
DA:7895,0
DA:7896,0
DA:7897,0
DA:7898,0
DA:7902,0
DA:7903,0
DA:7904,0
DA:7905,0
DA:7906,0
DA:7907,0
DA:7908,0
DA:7909,0
DA:7910,0
DA:7912,0
DA:7913,0
DA:7916,0
DA:7917,0
DA:7918,0
DA:7919,0
DA:7920,0
DA:7921,0
DA:7923,0
DA:7925,0
DA:7926,0
DA:7927,0
DA:7928,0
DA:7929,0
DA:7930,0
DA:7931,0
DA:7932,0
DA:7934,0
DA:7935,0
DA:7938,2
DA:7939,2
DA:7940,2
DA:7941,0
DA:7942,2
DA:7943,0
DA:7944,2
DA:7945,0
DA:7946,2
DA:7947,0
DA:7948,2
DA:7959,0
DA:7960,0
DA:7961,0
DA:7962,0
DA:7983,0
DA:7985,0
DA:8019,0
DA:8020,0
DA:8021,0
DA:8028,0
DA:8029,0
DA:8030,0
DA:8035,0
DA:8036,0
DA:8040,0
DA:8043,0
DA:8044,0
DA:8047,0
DA:8048,0
DA:8050,0
DA:8052,0
DA:8055,0
DA:8056,0
DA:8064,0
DA:8065,0
DA:8066,0
DA:8067,0
DA:8069,0
DA:8073,0
DA:8074,0
DA:8077,0
DA:8078,0
DA:8081,0
DA:8082,0
DA:8083,0
DA:8084,0
DA:8086,0
DA:8088,0
DA:8089,0
DA:8090,0
DA:8091,0
DA:8092,0
DA:8093,0
DA:8094,0
DA:8095,0
DA:8099,0
DA:8100,0
DA:8105,0
DA:8106,0
DA:8109,0
DA:8110,0
DA:8113,0
DA:8114,0
DA:8123,0
DA:8124,0
DA:8125,0
DA:8127,0
DA:8140,0
DA:8142,0
DA:8143,0
DA:8144,0
DA:8145,0
DA:8147,0
DA:8149,0
DA:8150,0
DA:8152,0
DA:8155,0
DA:8157,0
DA:8158,0
DA:8160,0
DA:8161,0
DA:8162,0
DA:8163,0
DA:8164,0
DA:8165,0
DA:8166,0
DA:8167,0
DA:8168,0
DA:8169,0
DA:8172,0
DA:8174,0
DA:8175,0
DA:8178,0
DA:8180,0
DA:8181,0
DA:8184,0
DA:8186,0
DA:8187,0
DA:8190,0
DA:8192,0
DA:8193,0
DA:8196,0
DA:8198,0
DA:8199,0
DA:8200,0
DA:8201,0
DA:8203,0
DA:8204,0
DA:8207,0
DA:8208,0
DA:8213,0
DA:8214,0
DA:8216,0
DA:8217,0
DA:8219,0
DA:8220,0
DA:8222,0
DA:8223,0
DA:8226,0
DA:8227,0
DA:8244,0
DA:8246,0
DA:8250,0
DA:8251,0
DA:8253,0
DA:8254,0
DA:8257,0
DA:8258,0
DA:8266,0
DA:8268,0
DA:8269,0
DA:8273,0
DA:8274,0
DA:8276,0
DA:8277,0
DA:8278,0
DA:8280,0
DA:8281,0
DA:8282,0
DA:8284,0
DA:8309,0
DA:8320,0
DA:8399,0
DA:8402,0
DA:8404,0
DA:8405,0
DA:8407,0
DA:8408,0
DA:8409,0
DA:8411,0
DA:8412,0
DA:8414,0
DA:8416,0
DA:8417,0
DA:8418,0
DA:8526,0
DA:8527,0
DA:8528,0
DA:8531,92
DA:8532,92
DA:8533,0
DA:8534,0
DA:8536,92
DA:8538,0
DA:8539,0
DA:8565,2
DA:8567,2
DA:8584,148
DA:8605,4
DA:8634,0
DA:8648,2
DA:8669,4
DA:8684,4
DA:8688,2
DA:8689,4
DA:8690,4
DA:8692,2
DA:8693,2
DA:8695,0
DA:8696,0
DA:8698,2
DA:8699,2
DA:8701,2
DA:8702,2
DA:8706,8
DA:8707,8
DA:8708,8
DA:8709,0
DA:8710,0
DA:8711,0
DA:8712,74
DA:8713,74
DA:8714,74
DA:8715,0
DA:8716,0
DA:8717,0
DA:8718,0
DA:8719,0
DA:8720,0
DA:8721,0
DA:8722,0
DA:8723,0
DA:8734,96
DA:8736,96
DA:8737,2
DA:8738,96
DA:8742,10
DA:8743,10
DA:8745,82
DA:8746,82
DA:8748,2
DA:8749,2
DA:8750,2
DA:8751,2
DA:8752,2
DA:8753,2
DA:8754,0
DA:8755,0
DA:8766,2
DA:8767,2
DA:8768,2
DA:8769,0
DA:8770,2
DA:8773,8
DA:8774,8
DA:8775,8
DA:8776,0
DA:8777,0
DA:8778,0
DA:8780,0
DA:8781,0
DA:8783,2
DA:8784,2
DA:8793,16
DA:8794,16
DA:8796,0
DA:8797,0
DA:8800,0
DA:8801,0
DA:8804,0
DA:8805,16
DA:8817,2
DA:8818,4
DA:8819,2
DA:8821,2
DA:8823,8
DA:8825,2
DA:8826,2
DA:8827,2
DA:8828,2
DA:8829,2
DA:8831,4
DA:8832,2
DA:8833,2
DA:8835,2
DA:8836,2
DA:8837,2
DA:8839,2
DA:8840,2
DA:8841,2
DA:8843,74
DA:8844,74
DA:8846,148
DA:8847,148
DA:8849,74
DA:8851,74
DA:8853,74
DA:8855,74
DA:8856,74
DA:8857,74
DA:8858,16
DA:8859,90
DA:8860,90
DA:8861,90
DA:8862,90
DA:8864,74
DA:8865,74
DA:8866,0
DA:8867,0
DA:8868,0
DA:8870,74
DA:8871,148
DA:8875,74
DA:8877,74
DA:8878,74
DA:8880,148
DA:8883,0
DA:8884,0
DA:8887,0
DA:8888,0
DA:8891,4
DA:8892,4
DA:8893,0
DA:8894,0
DA:8895,4
DA:8896,4
DA:8897,4
DA:8898,0
DA:8900,4
DA:8903,0
DA:8908,4
DA:8911,4
DA:8912,4
DA:8913,4
DA:8914,135
DA:8915,135
DA:8916,135
DA:8917,135
DA:8919,117
DA:8920,117
DA:8921,117
DA:8922,55
DA:8923,62
DA:8925,62
DA:8927,62
DA:8929,62
DA:8931,62
DA:8934,152
DA:8935,152
DA:8936,149
DA:8937,3
DA:8938,3
DA:8939,0
DA:8940,0
DA:8941,0
DA:8942,0
DA:8943,0
DA:8946,62
DA:8947,62
DA:8948,62
DA:8950,62
DA:8951,59
DA:8952,59
DA:8955,62
DA:8956,62
DA:8957,62
DA:8959,3
DA:8960,3
DA:8961,1
DA:8963,2
DA:8964,3
DA:8966,3
DA:8967,3
DA:8968,0
DA:8969,0
DA:8970,0
DA:8971,0
DA:8972,0
DA:8973,0
DA:8975,0
DA:8976,0
DA:8977,0
DA:8979,0
DA:8980,0
DA:8981,0
DA:8983,0
DA:8984,0
DA:8985,0
DA:8986,0
DA:8989,0
DA:8990,0
DA:8993,0
DA:8994,0
DA:8995,0
DA:8997,0
DA:8999,0
DA:9003,0
DA:9004,0
DA:9005,0
DA:9007,0
DA:9009,0
DA:9012,0
DA:9013,0
DA:9015,0
DA:9016,0
DA:9017,0
DA:9018,0
DA:9020,0
DA:9022,0
DA:9023,0
DA:9024,0
DA:9025,0
DA:9027,0
DA:9028,0
DA:9029,0
DA:9030,0
DA:9031,0
DA:9032,0
DA:9033,0
DA:9035,0
DA:9036,0
DA:9039,131
DA:9040,131
DA:9041,131
DA:9042,131
DA:9043,131
DA:9045,172
DA:9046,172
DA:9049,90
DA:9050,90
DA:9051,180
DA:9052,90
DA:9053,90
DA:9054,90
DA:9055,90
DA:9056,90
DA:9058,90
DA:9060,90
DA:9062,90
DA:9064,0
DA:9065,0
DA:9067,0
DA:9068,0
DA:9069,0
DA:9070,0
DA:9077,90
DA:9078,90
DA:9080,86
DA:9081,4
DA:9083,0
DA:9086,0
DA:9087,0
DA:9088,0
DA:9091,90
DA:9092,90
DA:9094,90
DA:9095,90
DA:9096,90
DA:9098,180
DA:9099,90
DA:9100,90
DA:9102,90
DA:9103,180
DA:9104,90
DA:9105,86
DA:9106,86
DA:9108,90
DA:9111,93
DA:9112,90
DA:9113,93
DA:9115,3
DA:9116,90
DA:9117,90
DA:9119,135
DA:9124,135
DA:9126,135
DA:9127,135
DA:9129,135
DA:9130,131
DA:9131,131
DA:9134,0
DA:9138,4
DA:9139,4
DA:9141,135
DA:9142,4
DA:9148,4
DA:9149,8
DA:9151,8
DA:9152,4
DA:9154,4
DA:9155,4
DA:9157,0
DA:9163,0
DA:9165,0
DA:9167,0
DA:9168,0
DA:9169,0
DA:9170,0
DA:9171,0
DA:9172,0
DA:9173,0
DA:9174,0
DA:9178,0
DA:9179,0
DA:9181,0
DA:9186,0
DA:9188,0
DA:9189,0
DA:9190,0
DA:9191,0
DA:9192,0
DA:9193,0
DA:9195,4
DA:9196,4
DA:9197,4
DA:9198,4
DA:9200,0
DA:9203,0
DA:9205,0
DA:9206,0
DA:9207,0
DA:9208,0
DA:9209,0
DA:9210,0
DA:9215,0
DA:9217,0
DA:9218,0
DA:9219,0
DA:9221,0
DA:9222,0
DA:9223,0
DA:9225,314
DA:9226,314
DA:9227,628
DA:9229,0
DA:9237,117
DA:9239,117
DA:9241,117
DA:9242,117
DA:9244,234
DA:9245,117
DA:9246,124
DA:9247,62
DA:9248,3
DA:9250,59
DA:9252,117
DA:9255,117
DA:9256,117
DA:9265,207
DA:9267,207
DA:9269,207
DA:9270,207
DA:9356,2
DA:9357,2
DA:9358,2
DA:9360,2
DA:9363,2
DA:9364,2
DA:9365,2
DA:9368,0
DA:9370,0
DA:9371,0
DA:9372,0
DA:9374,0
DA:9375,0
DA:9378,2
DA:9381,4
DA:9383,4
DA:9385,2
DA:9387,2
DA:9389,4
DA:9391,2
DA:9392,76
DA:9393,74
DA:9394,74
DA:9396,0
DA:9399,2
DA:9400,0
DA:9402,0
DA:9403,0
DA:9404,0
DA:9405,0
DA:9406,0
DA:9409,0
DA:9410,0
DA:9413,2
DA:9414,4
DA:9417,0
DA:9418,0
DA:9419,0
DA:9420,0
DA:9422,0
DA:9423,0
DA:9424,0
DA:9425,0
DA:9426,0
DA:9429,0
DA:9430,0
DA:9431,0
DA:9434,0
DA:9435,0
DA:9437,0
DA:9441,2
DA:9443,2
DA:9444,0
DA:9445,0
DA:9448,2
DA:9449,2
DA:9450,0
DA:9451,0
DA:9452,0
DA:9454,0
DA:9456,0
DA:9457,0
DA:9458,0
DA:9463,2
DA:9464,2
DA:9465,2
DA:9466,4
DA:9467,2
DA:9468,2
DA:9470,0
DA:9471,0
DA:9472,0
DA:9473,0
DA:9474,0
DA:9475,0
DA:9476,0
DA:9477,0
DA:9478,0
DA:9479,0
DA:9480,0
DA:9481,0
DA:9482,0
DA:9484,2
DA:9485,2
DA:9486,0
DA:9488,4
DA:9489,2
DA:9491,0
DA:9492,0
DA:9493,0
DA:9494,0
DA:9495,0
DA:9496,0
DA:9499,2
DA:9500,0
DA:9501,2
DA:9502,0
DA:9503,2
DA:9504,2
DA:9507,0
DA:9508,0
DA:9509,0
DA:9510,0
DA:9512,2
DA:9513,2
DA:9514,0
DA:9515,2
DA:9516,2
DA:9517,2
DA:9518,2
DA:9544,2
DA:9545,2
DA:9546,0
DA:9547,0
DA:9549,2
DA:9550,2
DA:9551,0
DA:9552,0
DA:9554,2
DA:9557,0
DA:9558,0
DA:9560,0
DA:9561,0
DA:9562,0
DA:9563,0
DA:9564,0
DA:9566,4
DA:9567,4
DA:9568,2
DA:9569,4
DA:9572,2
DA:9573,2
DA:9574,0
DA:9576,2
DA:9577,0
DA:9581,2
DA:9583,2
DA:9585,2
DA:9586,0
DA:9589,4
DA:9590,0
DA:9592,2
DA:9596,2
DA:9598,0
DA:9599,0
DA:9600,0
DA:9609,0
DA:9611,0
DA:9613,0
DA:9615,0
DA:9617,0
DA:9619,2
DA:9620,2
DA:9650,0
DA:9651,0
DA:9652,0
DA:9654,0
DA:9655,0
DA:9656,0
DA:9659,0
DA:9660,0
DA:9662,0
DA:9663,0
DA:9664,0
DA:9666,0
DA:9668,0
DA:9671,0
DA:9672,0
DA:9673,0
DA:9674,0
DA:9676,0
DA:9684,0
DA:9685,0
DA:9686,0
DA:9694,0
DA:9695,0
DA:9696,0
DA:9697,0
DA:9698,0
DA:9700,0
DA:9701,0
DA:9712,2
DA:9713,4
DA:9716,2
DA:9725,0
DA:9726,0
DA:9727,0
DA:9728,0
DA:9730,0
DA:9733,0
DA:9740,2
DA:9741,2
DA:9742,2
DA:9743,0
DA:9744,0
DA:9745,0
DA:9747,0
DA:9750,0
DA:9754,4
DA:9760,145
DA:9761,145
DA:9762,4
DA:9763,4
DA:9766,141
DA:9767,141
DA:9768,141
DA:9772,145
DA:9773,145
DA:9774,145
DA:9775,145
DA:9778,435
DA:9779,435
DA:9780,2
DA:9781,435
DA:9783,2
DA:9784,2
DA:9785,2
DA:9786,2
DA:9791,2
DA:9792,2
DA:9793,2
DA:9795,145
DA:9796,145
DA:9797,145
DA:9798,145
DA:9800,290
DA:9801,145
DA:9802,145
DA:9803,145
DA:9804,145
DA:9806,145
DA:9807,145
DA:9813,100
DA:9814,0
DA:9815,0
DA:9833,2
DA:9834,2
DA:9838,2
DA:9839,2
DA:9841,74
DA:9842,74
DA:9844,0
DA:9845,0
DA:9847,0
DA:9848,0
DA:9850,0
DA:9851,0
DA:9853,2
DA:9854,2
DA:9855,2
DA:9856,2
DA:9857,2
DA:9858,2
DA:9859,2
DA:9861,0
DA:9863,0
DA:9864,0
DA:9866,0
DA:9869,0
DA:9870,0
DA:9871,0
DA:9872,0
DA:9873,0
DA:9874,0
DA:9875,0
DA:9876,0
DA:9878,0
DA:9880,0
DA:9883,0
DA:9885,0
DA:9886,0
DA:9888,0
DA:9889,0
DA:9890,0
DA:9891,0
DA:9892,0
DA:9915,473
DA:9916,473
DA:9917,473
DA:9919,226
DA:9920,226
DA:9923,0
DA:9924,0
DA:9925,0
DA:9926,0
DA:9927,0
DA:9929,0
DA:9930,0
DA:9931,0
DA:9932,0
DA:9934,12
DA:9935,12
DA:9938,0
DA:9939,0
DA:9941,0
DA:9942,0
DA:9945,0
DA:9946,0
DA:9947,0
DA:9948,0
DA:9949,0
DA:9950,0
DA:9952,0
DA:9953,0
DA:9954,0
DA:9955,0
DA:9957,0
DA:9959,0
DA:9961,0
DA:9962,0
DA:9964,0
DA:9965,0
DA:9968,12
DA:9969,12
DA:9972,0
DA:9973,0
DA:9975,0
DA:9976,0
DA:9977,0
DA:9978,0
DA:9979,0
DA:9980,0
DA:9981,0
DA:9982,0
DA:9985,0
DA:9988,0
DA:9989,0
DA:9990,0
DA:9991,0
DA:9992,0
DA:9993,0
DA:9995,0
DA:9996,0
DA:9998,0
DA:9999,0
DA:10002,4
DA:10003,4
DA:10006,8
DA:10007,8
DA:10008,8
DA:10020,0
DA:10027,0
DA:10029,0
DA:10030,0
DA:10032,0
DA:10034,0
DA:10044,2
DA:10046,0
DA:10047,0
DA:10048,0
DA:10049,0
DA:10051,0
DA:10054,2
DA:10055,2
DA:10056,2
DA:10057,0
DA:10058,0
DA:10059,0
DA:10060,0
DA:10061,0
DA:10064,2
DA:10067,0
DA:10068,0
DA:10071,0
DA:10075,0
DA:10077,2
DA:10079,2
DA:10080,2
DA:10095,0
DA:10096,0
DA:10097,0
DA:10098,0
DA:10099,0
DA:10100,0
DA:10101,0
DA:10102,0
DA:10103,0
DA:10104,0
DA:10105,0
DA:10106,0
DA:10107,0
DA:10108,0
DA:10110,0
DA:10112,0
DA:10113,0
DA:10115,0
DA:10116,0
DA:10120,0
DA:10123,74
DA:10128,74
DA:10131,148
DA:10132,148
DA:10133,74
DA:10134,148
DA:10135,74
DA:10136,0
DA:10137,0
DA:10138,0
DA:10140,0
DA:10143,0
DA:10144,0
DA:10145,0
DA:10146,0
DA:10147,0
DA:10148,0
DA:10150,0
DA:10151,0
DA:10152,0
DA:10155,0
DA:10158,74
DA:10159,0
DA:10162,148
DA:10163,148
DA:10166,74
DA:10167,74
DA:10168,74
DA:10169,74
DA:10171,74
DA:10172,0
DA:10173,0
DA:10174,0
DA:10176,74
DA:10177,74
DA:10179,74
DA:10183,74
DA:10188,74
DA:10190,74
DA:10191,74
DA:10193,0
DA:10194,0
DA:10196,0
DA:10197,0
DA:10199,4
DA:10200,4
DA:10202,74
DA:10203,74
DA:10206,0
DA:10207,0
DA:10209,0
DA:10210,0
DA:10211,0
DA:10213,0
DA:10214,0
DA:10215,0
DA:10216,0
DA:10217,0
DA:10220,0
DA:10223,74
DA:10225,0
DA:10226,0
DA:10227,0
DA:10228,0
DA:10231,90
DA:10232,90
DA:10233,86
DA:10235,0
DA:10236,0
DA:10237,0
DA:10238,0
DA:10241,511
DA:10242,511
DA:10245,242
DA:10247,242
DA:10258,2
DA:10260,2
DA:10262,2
DA:10263,0
DA:10264,0
DA:10265,0
DA:10266,0
DA:10267,0
DA:10268,0
DA:10269,0
DA:10270,2
DA:10272,2
DA:10274,2
DA:10276,74
DA:10277,74
DA:10280,2
DA:10281,4
DA:10282,76
DA:10283,74
DA:10284,74
DA:10289,2
DA:10291,0
DA:10292,0
DA:10293,0
DA:10294,0
DA:10295,0
DA:10296,0
DA:10297,0
DA:10299,2
DA:10300,2
DA:10303,74
DA:10304,148
DA:10305,74
DA:10306,0
DA:10307,0
DA:10308,0
DA:10310,74
DA:10313,0
DA:10314,0
DA:10316,2
DA:10317,2
DA:10318,2
DA:10320,2
DA:10321,2
DA:10322,2
DA:10324,2
DA:10328,74
DA:10330,90
DA:10331,90
DA:10332,86
DA:10334,74
DA:10335,74
DA:10336,74
DA:10338,0
DA:10339,0
DA:10340,0
DA:10341,0
DA:10342,0
DA:10344,74
DA:10365,281
DA:10367,281
DA:10368,281
DA:10372,0
DA:10373,0
DA:10374,0
DA:10377,74
DA:10378,74
DA:10379,74
DA:10380,74
DA:10381,74
DA:10384,0
DA:10385,0
DA:10386,0
DA:10387,0
DA:10388,0
DA:10390,90
DA:10391,90
DA:10392,90
DA:10393,90
DA:10394,152
DA:10395,152
DA:10396,152
DA:10398,207
DA:10399,207
DA:10401,358
DA:10402,358
DA:10404,304
DA:10405,304
DA:10406,304
DA:10408,207
DA:10409,170
DA:10411,262
DA:10412,262
DA:10415,189
DA:10418,189
DA:10419,189
DA:10421,262
DA:10422,262
DA:10424,331
DA:10425,331
DA:10427,90
DA:10428,90
DA:10430,117
DA:10431,117
DA:10433,0
DA:10434,0
DA:10437,115
DA:10438,115
DA:10439,115
DA:10441,207
DA:10442,207
DA:10443,414
DA:10444,92
DA:10445,506
DA:10447,0
DA:10448,0
DA:10449,0
DA:10452,214
DA:10453,214
DA:10454,136
DA:10455,136
DA:10456,62
DA:10458,214
DA:10460,0
DA:10461,0
DA:10463,152
DA:10464,152
DA:10465,152
DA:10466,152
DA:10467,152
DA:10468,152
DA:10470,151
DA:10473,151
DA:10474,0
DA:10476,151
DA:10477,1
DA:10478,1
DA:10480,89
DA:10481,89
DA:10482,89
DA:10483,61
DA:10484,61
DA:10485,25
DA:10486,61
DA:10488,0
DA:10491,0
DA:10493,0
DA:10494,0
DA:10496,151
DA:10497,151
DA:10498,151
DA:10499,1
DA:10500,1
DA:10501,1
DA:10502,1
DA:10503,1
DA:10504,1
DA:10505,1
DA:10506,1
DA:10507,1
DA:10508,1
DA:10510,152
DA:10511,152
DA:10512,152
DA:10513,152
DA:10514,152
DA:10515,152
DA:10516,152
DA:10518,189
DA:10519,189
DA:10521,189
DA:10522,115
DA:10523,0
DA:10525,115
DA:10526,115
DA:10528,189
DA:10530,281
DA:10532,207
DA:10533,414
DA:10535,207
DA:10536,414
DA:10537,92
DA:10538,92
DA:10539,92
DA:10542,115
DA:10543,115
DA:10545,207
DA:10546,180
DA:10547,414
DA:10550,180
DA:10551,180
DA:10552,152
DA:10553,180
DA:10555,74
DA:10556,74
DA:10557,0
DA:10558,0
DA:10559,0
DA:10561,74
DA:10562,115
DA:10563,115
DA:10564,0
DA:10565,115
DA:10567,0
DA:10569,0
DA:10570,0
DA:10572,0
DA:10574,0
DA:10575,0
DA:10577,0
DA:10578,0
DA:10579,0
DA:10580,0
DA:10581,0
DA:10584,0
DA:10585,0
DA:10588,0
DA:10589,0
DA:10590,0
DA:10591,0
DA:10594,0
DA:10597,0
DA:10599,0
DA:10600,0
DA:10601,0
DA:10602,0
DA:10604,0
DA:10605,0
DA:10606,0
DA:10607,0
DA:10608,0
DA:10627,74
DA:10628,74
DA:10631,74
DA:10633,74
DA:10635,74
DA:10636,74
DA:10637,148
DA:10639,148
DA:10641,74
DA:10642,0
DA:10644,0
DA:10646,74
DA:10665,0
DA:10666,0
DA:10667,0
DA:10668,0
DA:10669,0
DA:10672,2
DA:10673,74
DA:10674,148
DA:10676,222
DA:10679,2
DA:10680,74
DA:10682,74
DA:10684,148
DA:10685,74
DA:10686,0
DA:10688,74
DA:10691,0
DA:10692,0
DA:10694,74
DA:10696,74
DA:10697,74
DA:10698,74
DA:10699,0
DA:10707,2
DA:10709,2
DA:10710,2
DA:10711,2
DA:10712,2
DA:10713,2
DA:10714,2
DA:10715,8
DA:10716,6
DA:10717,2
DA:10718,0
DA:10719,2
DA:10721,2
DA:10722,2
DA:10723,2
DA:10726,6
DA:10727,6
DA:10728,4
DA:10729,0
DA:10730,2
DA:10731,2
DA:10732,0
DA:10733,0
DA:10734,0
DA:10737,2
DA:10738,0
DA:10739,0
DA:10740,0
DA:10742,0
DA:10743,0
DA:10744,0
DA:10746,0
DA:10747,0
DA:10749,0
DA:10750,0
DA:10752,2
DA:10753,0
DA:10754,2
DA:10755,0
DA:10756,2
DA:10757,2
DA:10759,2
DA:10760,2
DA:10761,2
DA:10762,2
DA:10763,0
DA:10764,0
DA:10765,0
DA:10766,0
DA:10767,0
DA:10768,0
DA:10769,2
DA:10771,2
DA:10772,2
DA:10773,2
DA:10774,2
DA:10776,2
DA:10778,0
DA:10779,0
DA:10792,355
DA:10793,355
DA:10797,0
DA:10798,0
DA:10801,0
DA:10803,0
DA:10806,0
DA:10807,0
DA:10808,0
DA:10809,0
DA:10811,0
DA:10812,0
DA:10817,0
DA:10818,0
DA:10824,0
DA:10827,0
DA:10828,0
DA:10829,0
DA:10832,207
DA:10833,207
DA:10834,207
DA:10835,148
DA:10836,148
DA:10838,148
DA:10839,148
DA:10841,0
DA:10842,0
DA:10844,148
DA:10845,148
DA:10870,2
DA:10878,0
DA:10884,0
DA:10885,0
DA:10890,0
DA:10892,0
DA:10893,0
DA:10894,0
DA:10895,0
DA:10898,0
DA:10899,0
DA:10900,0
DA:10901,0
DA:10902,0
DA:10903,0
DA:10908,0
DA:10909,0
DA:10910,0
DA:10913,0
DA:10914,0
DA:10915,0
DA:10917,0
DA:10918,0
DA:10919,0
DA:10920,0
DA:10921,0
DA:10922,0
DA:10924,0
DA:10933,0
DA:10934,0
DA:10935,0
DA:10938,0
DA:10939,0
DA:10940,0
DA:10941,0
DA:10942,0
DA:10943,0
DA:10944,0
DA:10945,0
DA:10946,0
DA:10947,0
DA:10948,0
DA:10949,0
DA:10952,0
DA:10953,0
DA:10957,0
DA:10958,0
DA:10959,0
DA:10960,0
DA:10961,0
DA:10963,0
DA:10967,0
DA:10968,0
DA:10969,0
DA:10971,0
DA:10974,0
DA:10975,0
DA:10976,0
DA:10978,0
DA:10982,0
DA:10983,0
DA:10984,0
DA:10986,0
DA:10989,0
DA:10990,0
DA:10991,0
DA:10993,0
DA:10998,2
DA:10999,2
DA:11001,0
DA:11002,0
DA:11004,2
DA:11005,4
DA:11006,2
DA:11007,2
DA:11008,0
DA:11010,4
DA:11013,0
DA:11014,0
DA:11016,0
DA:11017,0
DA:11019,0
DA:11020,0
DA:11021,0
DA:11022,0
DA:11023,0
DA:11025,0
DA:11028,0
DA:11029,0
DA:11032,0
DA:11033,0
DA:11034,0
DA:11035,0
DA:11036,0
DA:11037,0
DA:11038,0
DA:11039,0
DA:11040,0
DA:11041,0
DA:11042,0
DA:11044,0
DA:11045,0
DA:11046,0
DA:11049,0
DA:11050,0
DA:11052,0
DA:11053,0
DA:11056,0
DA:11057,0
DA:11060,0
DA:11061,0
DA:11063,0
DA:11064,0
DA:11067,0
DA:11068,0
DA:11069,0
DA:11070,0
DA:11071,0
DA:11072,0
DA:11085,300
DA:11086,300
DA:11087,300
DA:11088,300
DA:11089,300
DA:11090,300
DA:11093,222
DA:11094,222
DA:11095,222
DA:11096,222
DA:11097,222
DA:11100,172
DA:11101,172
DA:11103,4
DA:11104,4
DA:11106,0
DA:11107,0
DA:11110,74
DA:11111,74
DA:11112,74
DA:11113,74
DA:11114,74
DA:11117,74
DA:11118,74
DA:11119,74
DA:11120,74
DA:11123,74
DA:11124,74
DA:11125,74
DA:11126,4
DA:11127,70
DA:11128,0
DA:11130,70
DA:11131,74
DA:11141,62
DA:11145,62
DA:11156,2
DA:11161,2
DA:11166,2
DA:11167,2
DA:11169,2
DA:11170,2
DA:11171,2
DA:11172,2
DA:11174,2
DA:11175,0
DA:11176,0
DA:11178,2
DA:11181,2
DA:11182,2
DA:11183,2
DA:11194,0
DA:11195,0
DA:11197,0
DA:11199,0
DA:11200,0
DA:11201,0
DA:11203,0
DA:11204,0
DA:11205,0
DA:11207,0
DA:11209,0
DA:11210,0
DA:11211,0
DA:11212,0
DA:11213,0
DA:11214,0
DA:11215,0
DA:11216,0
DA:11217,0
DA:11218,0
DA:11219,0
DA:11220,0
DA:11224,0
DA:11225,0
DA:11239,0
DA:11240,0
DA:11241,0
DA:11243,0
DA:11244,0
DA:11246,0
DA:11247,0
DA:11249,0
DA:11252,0
DA:11253,0
DA:11254,0
DA:11256,0
DA:11257,0
DA:11259,0
DA:11260,0
DA:11262,0
DA:11265,0
DA:11266,0
DA:11267,0
DA:11268,0
DA:11269,0
DA:11273,0
DA:11275,0
DA:11276,0
DA:11278,0
DA:11282,0
DA:11283,0
DA:11284,0
DA:11285,0
DA:11286,0
DA:11288,0
DA:11290,0
DA:11291,0
DA:11293,0
DA:11294,0
DA:11296,0
DA:11297,0
DA:11298,0
DA:11300,0
DA:11301,0
DA:11303,0
DA:11308,0
DA:11309,0
DA:11310,0
DA:11314,0
DA:11315,0
DA:11316,0
DA:11325,0
DA:11327,0
DA:11328,0
DA:11331,0
DA:11333,0
DA:11334,0
DA:11335,0
DA:11340,0
DA:11341,0
DA:11342,0
DA:11343,0
DA:11344,0
DA:11345,0
DA:11348,0
DA:11350,0
DA:11352,0
DA:11353,0
DA:11354,0
DA:11358,0
DA:11359,0
DA:11363,0
DA:11364,0
DA:11366,0
DA:11367,0
DA:11370,0
DA:11372,0
DA:11373,0
DA:11374,0
DA:11377,0
DA:11378,0
DA:11379,0
DA:11381,0
DA:11382,0
DA:11383,0
DA:11384,0
DA:11385,0
DA:11386,0
DA:11387,0
DA:11389,0
DA:11390,0
DA:11391,0
DA:11394,0
DA:11395,0
DA:11396,0
DA:11397,0
DA:11399,0
DA:11400,0
DA:11401,0
DA:11404,0
DA:11406,0
DA:11407,0
DA:11409,0
DA:11410,0
DA:11411,0
DA:11412,0
DA:11414,0
DA:11415,0
DA:11416,0
DA:11417,0
DA:11418,0
DA:11419,0
DA:11420,0
DA:11421,0
DA:11424,0
DA:11425,0
DA:11426,0
DA:11427,0
DA:11430,0
DA:11431,0
DA:11432,0
DA:11433,0
DA:11434,0
DA:11435,0
DA:11438,0
DA:11440,0
DA:11441,0
DA:11442,0
DA:11445,0
DA:11446,0
DA:11447,0
DA:11448,0
DA:11451,0
DA:11452,0
DA:11453,0
DA:11456,0
DA:11457,0
DA:11458,0
DA:11459,0
DA:11460,0
DA:11461,0
DA:11462,0
DA:11463,0
DA:11465,0
DA:11468,0
DA:11469,0
DA:11470,0
DA:11471,0
DA:11472,0
DA:11475,0
DA:11476,0
DA:11477,0
DA:11479,0
DA:11480,0
DA:11481,0
DA:11482,0
DA:11485,0
DA:11486,0
DA:11487,0
DA:11488,0
DA:11490,0
DA:11492,0
DA:11493,0
DA:11494,0
DA:11496,0
DA:11497,0
DA:11498,0
DA:11499,0
DA:11501,0
DA:11513,0
DA:11514,0
DA:11515,0
DA:11519,0
DA:11524,0
DA:11528,0
DA:11532,0
DA:11534,0
DA:11537,0
DA:11538,0
DA:11540,0
DA:11542,0
DA:11543,0
DA:11556,0
DA:11557,0
DA:11561,0
DA:11563,0
DA:11565,0
DA:11578,0
DA:11579,0
DA:11580,0
DA:11581,0
DA:11582,0
DA:11584,0
DA:11585,0
DA:11587,0
DA:11588,0
DA:11589,0
DA:11590,0
DA:11591,0
DA:11593,0
DA:11594,0
DA:11595,0
DA:11596,0
DA:11597,0
DA:11599,0
DA:11600,0
DA:11602,0
DA:11604,0
DA:11605,0
DA:11606,0
DA:11608,0
DA:11611,0
DA:11615,0
DA:11616,0
DA:11619,0
DA:11620,0
DA:11622,0
DA:11623,0
DA:11625,0
DA:11627,0
DA:11628,0
DA:11629,0
DA:11630,0
DA:11631,0
DA:11632,0
DA:11633,0
DA:11635,0
DA:11636,0
DA:11637,0
DA:11638,0
DA:11639,0
DA:11641,0
DA:11642,0
DA:11643,0
DA:11644,0
DA:11645,0
DA:11646,0
DA:11647,0
DA:11648,0
DA:11649,0
DA:11650,0
DA:11651,0
DA:11652,0
DA:11653,0
DA:11654,0
DA:11655,0
DA:11656,0
DA:11657,0
DA:11658,0
DA:11659,0
DA:11660,0
DA:11661,0
DA:11662,0
DA:11663,0
DA:11664,0
DA:11665,0
DA:11666,0
DA:11667,0
DA:11668,0
DA:11669,0
DA:11670,0
DA:11671,0
DA:11672,0
DA:11673,0
DA:11674,0
DA:11675,0
DA:11676,0
DA:11677,0
DA:11678,0
DA:11679,0
DA:11680,0
DA:11682,0
DA:11685,0
DA:11686,0
DA:11688,0
DA:11691,0
DA:11692,0
DA:11693,0
DA:11694,0
DA:11696,0
DA:11697,0
DA:11699,0
DA:11700,0
DA:11702,0
DA:11704,0
DA:11706,0
DA:11707,0
DA:11708,0
DA:11710,0
DA:11711,0
DA:11712,0
DA:11714,0
DA:11715,0
DA:11717,0
DA:11719,0
DA:11721,0
DA:11722,0
DA:11723,0
DA:11725,0
DA:11727,0
DA:11728,0
DA:11730,0
DA:11731,0
DA:11733,0
DA:11735,0
DA:11737,0
DA:11738,0
DA:11739,0
DA:11740,0
DA:11742,0
DA:11744,0
DA:11745,0
DA:11746,0
DA:11749,0
DA:11750,0
DA:11753,0
DA:11754,0
DA:11757,0
DA:11759,0
DA:11760,0
DA:11761,0
DA:11762,0
DA:11763,0
DA:11779,0
DA:11780,0
DA:11783,0
DA:11784,0
DA:11787,0
DA:11788,0
DA:11789,0
DA:11791,0
DA:11793,0
DA:11794,0
DA:11796,0
DA:11799,0
DA:11800,0
DA:11801,0
DA:11802,0
DA:11805,0
DA:11806,0
DA:11808,0
DA:11809,0
DA:11812,0
DA:11813,0
DA:11814,0
DA:11816,0
DA:11818,0
DA:11819,0
DA:11820,0
DA:11821,0
DA:11822,0
DA:11824,0
DA:11826,2
DA:11847,4
DA:11851,4
DA:11852,4
DA:11856,4
DA:11858,8
DA:11859,4
DA:11860,0
DA:11861,0
DA:11862,0
DA:11864,0
DA:11865,0
DA:11866,0
DA:11867,0
DA:11868,0
DA:11869,4
DA:11870,4
DA:11871,0
DA:11872,0
DA:11874,4
DA:11875,4
DA:11877,4
DA:11878,0
DA:11879,4
DA:11880,0
DA:11881,4
DA:11882,0
DA:11883,0
DA:11884,0
DA:11885,0
DA:11886,0
DA:11887,0
DA:11888,0
DA:11889,0
DA:11890,0
DA:11891,0
DA:11892,0
DA:11893,0
DA:11894,0
DA:11895,0
DA:11896,0
DA:11897,0
DA:11898,0
DA:11899,0
DA:11900,0
DA:11901,0
DA:11902,0
DA:11903,0
DA:11904,0
DA:11905,0
DA:11906,0
DA:11907,0
DA:11908,0
DA:11909,0
DA:11910,0
DA:11911,0
DA:11912,0
DA:11913,0
DA:11914,0
DA:11916,0
DA:11919,0
DA:11920,0
DA:11921,0
DA:11923,4
DA:11925,4
DA:11926,4
DA:11927,4
DA:11928,4
DA:11929,0
DA:11930,4
DA:11931,4
DA:11932,4
DA:11934,0
DA:11936,4
DA:11937,4
DA:11940,4
DA:11941,4
DA:11942,8
DA:11943,4
DA:11945,4
DA:11946,4
DA:11947,4
DA:11948,8
DA:11949,4
DA:11950,4
DA:11951,4
DA:11953,4
DA:11954,4
DA:11955,4
DA:11956,4
DA:11957,8
DA:11958,4
DA:11960,4
DA:11961,4
DA:11962,4
DA:11963,0
DA:11964,4
DA:11966,0
DA:11967,0
DA:11969,4
DA:11970,4
DA:11971,8
DA:11972,4
DA:11973,4
DA:11986,6
DA:11987,6
DA:11988,6
DA:11991,1
DA:11992,1
DA:11993,0
DA:11994,1
DA:11995,0
DA:11997,1
DA:12000,24
DA:12027,0
DA:12028,0
DA:12029,0
DA:12030,0
DA:12031,0
DA:12032,0
DA:12033,0
DA:12034,0
DA:12035,0
DA:12036,0
DA:12037,0
DA:12038,0
DA:12040,0
DA:12043,0
DA:12045,0
DA:12046,0
DA:12047,0
DA:12048,0
DA:12049,0
DA:12050,0
DA:12051,0
DA:12052,0
DA:12053,0
DA:12054,0
DA:12055,0
DA:12056,0
DA:12059,0
DA:12060,0
DA:12061,0
DA:12062,0
DA:12063,0
DA:12064,0
DA:12065,0
DA:12066,0
DA:12067,0
DA:12068,0
DA:12069,0
DA:12070,0
DA:12071,0
DA:12072,0
DA:12076,0
DA:12077,0
DA:12082,2
DA:12090,2
DA:12091,2
DA:12092,2
DA:12094,0
DA:12095,0
DA:12098,0
DA:12099,0
DA:12100,0
DA:12101,0
DA:12102,0
DA:12103,0
DA:12104,0
DA:12105,0
DA:12107,0
DA:12108,230
DA:12109,230
DA:12110,0
DA:12111,0
DA:12112,0
DA:12114,230
DA:12117,0
DA:12118,0
DA:12119,0
DA:12122,0
DA:12123,0
DA:12125,0
DA:12126,0
DA:12127,0
DA:12128,0
DA:12129,0
DA:12130,0
DA:12132,0
DA:12134,0
DA:12135,0
DA:12136,0
DA:12137,0
DA:12138,0
DA:12139,0
DA:12141,0
DA:12142,0
DA:12145,0
DA:12146,0
DA:12147,0
DA:12148,0
DA:12150,0
DA:12154,2
DA:12162,2
DA:12165,0
DA:12166,0
DA:12169,0
DA:12170,0
DA:12171,0
DA:12173,135
DA:12175,4
DA:12176,4
DA:12178,4
DA:12181,4
DA:12182,0
DA:12184,4
DA:12186,8
DA:12187,4
DA:12188,4
DA:12189,4
DA:12192,152
DA:12193,152
DA:12194,152
DA:12195,152
DA:12196,152
DA:12197,152
DA:12198,152
DA:12199,0
DA:12200,0
DA:12201,0
DA:12202,0
DA:12204,0
DA:12205,0
DA:12207,152
DA:12208,0
DA:12210,152
DA:12211,4
DA:12213,152
DA:12214,152
DA:12216,0
DA:12217,0
DA:12219,0
DA:12221,0
DA:12222,0
DA:12223,0
DA:12224,0
DA:12226,0
DA:12228,0
DA:12230,0
DA:12231,0
DA:12232,0
DA:12233,0
DA:12234,0
DA:12235,0
DA:12236,0
DA:12237,0
DA:12239,74
DA:12240,74
DA:12241,74
DA:12242,74
DA:12243,74
DA:12244,2
DA:12245,2
DA:12246,0
DA:12247,0
DA:12248,0
DA:12249,0
DA:12251,2
DA:12252,2
DA:12253,2
DA:12254,2
DA:12255,2
DA:12256,2
DA:12257,2
DA:12258,2
DA:12260,4
DA:12262,4
DA:12263,4
DA:12264,4
DA:12266,4
DA:12268,4
DA:12269,2
DA:12270,4
DA:12271,4
DA:12273,4
DA:12274,4
DA:12275,4
DA:12277,4
DA:12278,2
DA:12279,2
DA:12280,4
DA:12281,2
DA:12282,2
DA:12283,2
DA:12285,2
DA:12286,0
DA:12288,2
DA:12289,2
DA:12290,4
DA:12291,4
DA:12292,0
DA:12293,0
DA:12295,4
DA:12296,4
DA:12297,4
DA:12298,4
DA:12300,4
DA:12301,2
DA:12304,1
DA:12305,1
DA:12306,7
DA:12307,3
DA:12310,4
DA:12312,4
DA:12313,4
DA:12314,8
DA:12315,4
DA:12317,4
DA:12318,4
DA:12320,0
DA:12321,0
DA:12322,0
DA:12323,0
DA:12324,4
DA:12325,4
DA:12327,8
DA:12328,4
DA:12330,4
DA:12334,7
DA:12335,7
DA:12336,7
DA:12337,4
DA:12339,3
DA:12340,7
DA:12341,7
DA:12343,100
DA:12345,8
DA:12346,16
DA:12347,16
DA:12348,16
DA:12349,32
DA:12350,16
DA:12351,32
DA:12352,24
DA:12353,12
DA:12354,2
DA:12355,8
DA:12356,0
DA:12358,16
DA:12359,32
DA:12368,2
DA:12369,2
DA:12370,0
DA:12371,2
DA:12372,0
DA:12373,0
DA:12374,0
DA:12375,0
DA:12376,0
DA:12379,4
DA:12380,6
DA:12381,4
DA:12382,4
DA:12383,6
DA:12384,4
DA:12385,4
DA:12386,6
DA:12387,4
DA:12388,4
DA:12389,6
DA:12390,4
DA:12391,4
DA:12393,2
DA:12394,2
DA:12396,2
DA:12397,4
DA:12398,20
DA:12399,32
DA:12400,16
DA:12401,4
DA:12402,4
DA:12403,4
DA:12405,0
DA:12406,12
DA:12407,8
DA:12408,16
DA:12409,8
DA:12412,4
DA:12413,4
DA:12415,2
DA:12416,2
DA:12417,2
DA:12418,2
DA:12419,2
DA:12420,2
DA:12421,0
DA:12422,4
DA:12423,1
DA:12425,2
DA:12426,2
DA:12427,2
DA:12428,0
DA:12430,2
DA:12432,0
DA:12434,2
DA:12435,2
DA:12436,0
DA:12437,0
DA:12438,0
DA:12440,2
DA:12458,0
DA:12462,0
DA:12463,0
DA:12470,0
DA:12474,0
DA:12479,0
DA:12481,0
DA:12484,0
DA:12487,0
DA:12488,0
DA:12489,0
DA:12490,0
DA:12494,0
DA:12496,0
DA:12498,0
DA:12499,0
DA:12500,0
DA:12502,0
DA:12504,0
DA:12505,0
DA:12508,0
DA:12510,0
DA:12511,0
DA:12512,0
DA:12513,0
DA:12515,0
DA:12516,0
DA:12517,0
DA:12518,0
DA:12519,0
DA:12520,0
DA:12521,0
DA:12523,0
DA:12524,0
DA:12525,0
DA:12527,0
DA:12528,0
DA:12529,0
DA:12530,0
DA:12533,0
DA:12534,0
DA:12535,0
DA:12536,0
DA:12537,0
DA:12539,0
DA:12540,0
DA:12541,0
DA:12542,0
DA:12543,0
DA:12545,0
DA:12546,0
DA:12547,0
DA:12549,0
DA:12550,0
DA:12551,0
DA:12552,0
DA:12553,0
DA:12554,0
DA:12555,0
DA:12556,0
DA:12557,0
DA:12558,0
DA:12560,0
DA:12561,0
DA:12564,0
DA:12565,0
DA:12567,0
DA:12568,0
DA:12569,0
DA:12571,0
DA:12572,0
DA:12576,0
DA:12577,0
DA:12579,0
DA:12581,0
DA:12582,0
DA:12583,0
DA:12584,0
DA:12587,0
DA:12588,0
DA:12590,0
DA:12591,0
DA:12593,0
DA:12596,0
DA:12597,0
DA:12598,0
DA:12600,0
DA:12601,0
DA:12602,0
DA:12603,0
DA:12604,0
DA:12605,0
DA:12606,0
DA:12609,0
DA:12610,0
DA:12612,0
DA:12614,0
DA:12616,0
DA:12617,0
DA:12618,0
DA:12619,0
DA:12621,0
DA:12622,0
DA:12623,0
DA:12625,0
DA:12626,0
DA:12628,0
DA:12629,0
DA:12630,0
DA:12631,0
DA:12633,0
DA:12634,0
DA:12635,0
DA:12636,0
DA:12637,0
DA:12638,0
DA:12640,0
DA:12641,0
DA:12642,0
DA:12643,0
DA:12644,0
DA:12645,0
DA:12646,0
DA:12647,0
DA:12648,0
DA:12649,0
DA:12650,0
DA:12653,0
DA:12659,0
DA:12660,0
DA:12663,0
DA:12665,0
DA:12666,0
DA:12668,0
DA:12669,0
DA:12670,0
DA:12671,0
DA:12672,0
DA:12673,0
DA:12675,0
DA:12676,0
DA:12678,0
DA:12680,2
DA:12690,0
DA:12692,0
DA:12693,0
DA:12695,0
DA:12696,0
DA:12697,0
DA:12699,0
DA:12700,0
DA:12701,0
DA:12702,0
DA:12703,0
DA:12705,0
DA:12706,0
DA:12709,0
DA:12710,0
DA:12713,0
DA:12714,0
DA:12715,0
DA:12717,0
DA:12718,0
DA:12720,0
DA:12721,0
DA:12722,0
DA:12724,0
DA:12725,0
DA:12726,0
DA:12727,0
DA:12728,0
DA:12730,0
DA:12731,0
DA:12733,0
DA:12734,0
DA:12735,0
DA:12737,0
DA:12738,0
DA:12740,0
DA:12741,0
DA:12742,0
DA:12744,0
DA:12745,0
DA:12747,0
DA:12748,0
DA:12749,0
DA:12751,0
DA:12752,0
DA:12754,0
DA:12755,0
DA:12756,0
DA:12758,0
DA:12759,0
DA:12761,0
DA:12762,0
DA:12763,0
DA:12765,0
DA:12766,0
DA:12769,0
DA:12770,0
DA:12771,0
DA:12773,0
DA:12776,0
DA:12777,0
DA:12778,0
DA:12780,0
DA:12781,0
DA:12783,0
DA:12784,0
DA:12785,0
DA:12787,0
DA:12788,0
DA:12790,0
DA:12791,0
DA:12792,0
DA:12794,0
DA:12795,0
DA:12797,0
DA:12798,0
DA:12799,0
DA:12801,0
DA:12802,0
DA:12804,0
DA:12805,0
DA:12806,0
DA:12808,0
DA:12809,0
DA:12811,0
DA:12812,0
DA:12827,0
DA:12829,0
DA:12831,0
DA:12832,0
DA:12833,0
DA:12837,0
DA:12838,0
DA:12841,0
DA:12842,0
DA:12845,0
DA:12847,0
DA:12848,0
DA:12849,0
DA:12851,0
DA:12852,0
DA:12853,0
DA:12855,0
DA:12856,0
DA:12857,0
DA:12858,0
DA:12859,0
DA:12860,0
DA:12861,0
DA:12862,0
DA:12863,0
DA:12865,0
DA:12866,0
DA:12867,0
DA:12868,0
DA:12869,0
DA:12871,0
DA:12872,0
DA:12873,0
DA:12874,0
DA:12875,0
DA:12876,0
DA:12878,0
DA:12880,0
DA:12881,0
DA:12882,0
DA:12883,0
DA:12885,0
DA:12886,0
DA:12887,0
DA:12888,0
DA:12889,0
DA:12890,0
DA:12891,0
DA:12893,0
DA:12895,0
DA:12897,0
DA:12899,0
DA:12901,0
DA:12903,0
DA:12905,0
DA:12906,0
DA:12907,0
DA:12908,0
DA:12909,0
DA:12910,0
DA:12911,0
DA:12917,0
DA:12918,0
DA:12921,0
DA:12922,0
DA:12923,0
DA:12924,0
DA:12926,0
DA:12928,0
DA:12929,0
DA:12930,0
DA:12931,0
DA:12935,0
DA:12936,0
DA:12937,0
DA:12938,0
DA:12939,0
DA:12940,0
DA:12941,0
DA:12942,0
DA:12943,0
DA:12944,0
DA:12945,0
DA:12946,0
DA:12947,0
DA:12948,0
DA:12949,0
DA:12950,0
DA:12951,0
DA:12952,0
DA:12954,0
DA:12955,0
DA:12956,0
DA:12957,0
DA:12958,0
DA:12959,0
DA:12960,0
DA:12961,0
DA:12962,0
DA:12965,0
DA:12966,0
DA:12968,0
DA:12971,0
DA:12972,0
DA:12973,0
DA:12974,0
DA:12975,0
DA:12976,0
DA:12977,0
DA:12979,0
DA:12980,0
DA:12982,0
DA:12984,0
DA:12986,0
DA:12987,0
DA:12988,0
DA:12989,0
DA:12991,0
DA:12992,0
DA:12994,0
DA:12995,0
DA:12996,0
DA:12997,0
DA:12999,0
DA:13000,0
DA:13002,0
DA:13003,0
DA:13005,0
DA:13006,0
DA:13007,0
DA:13008,0
DA:13009,0
DA:13010,0
DA:13012,0
DA:13013,0
DA:13014,0
DA:13015,0
DA:13016,0
DA:13017,0
DA:13018,0
DA:13019,0
DA:13021,2
DA:13031,2
DA:13051,2
DA:13054,2
DA:13353,6
LF:4271
LH:1685
end_of_record
